(dp0
S'pardon'
p1
I3
sS'hats'
p2
I1
sS'pide'
p3
I1
sS'colleges'
p4
I1
sS'everybody'
p5
I1
sS'four'
p6
I1
sS'hath'
p7
I1
sS'protest'
p8
I6
sS'sleep'
p9
I1
sS'deri'
p10
I1
sS'hating'
p11
I1
sS'captain'
p12
I1
sS'hate'
p13
I9
sS'assembled'
p14
I1
sS'whose'
p15
I1
sS'votes'
p16
I14
sS'voter'
p17
I32
sS'founder'
p18
I1
sS'dazu'
p19
I1
sS'tweet'
p20
I5
sS'deutsche'
p21
I1
sS'cashin'
p22
I1
sS'edward'
p23
I2
sS'voted'
p24
I2
sS'under'
p25
I3
sS'teaching'
p26
I1
sS'sway'
p27
I1
sS'regrets'
p28
I1
sS'divergent'
p29
I1
sS'pact'
p30
I1
sS'updated'
p31
I1
sS'risk'
p32
I1
sS'rise'
p33
I3
sS'smack'
p34
I1
sS'mania'
p35
I1
sS'every'
p36
I10
sS'jack'
p37
I1
sS'politician'
p38
I1
sS'bringing'
p39
I1
sS'school'
p40
I2
sS'snowflakes'
p41
I1
sS'debunks'
p42
I1
sS'cause'
p43
I2
sS'solution'
p44
I1
sS'indefinitely'
p45
I1
sS'pardons'
p46
I1
sS'math'
p47
I2
sS'revolted'
p48
I1
sS'deplorable'
p49
I4
sS'clothes'
p50
I1
sS'uncovers'
p51
I2
sS'force'
p52
I2
sS'leaders'
p53
I2
sS'tired'
p54
I3
sS'phones'
p55
I1
sS'warns'
p56
I12
sS'elections'
p57
I2
sS'270'
p58
I3
sS'elegant'
p59
I1
sS'crave'
p60
I8
sS'street'
p61
I3
sS'49'
p62
I1
sS'trumpprotest'
p63
I1
sS'n'
p64
I4
sS'draintheswamp'
p65
I1
sS'seth'
p66
I2
sS'machines'
p67
I7
sS'monster'
p68
I1
sS'even'
p69
I8
sS'neo'
p70
I1
sS'brexit'
p71
I5
sS'battleground'
p72
I2
sS'hide'
p73
I1
sS'wreck'
p74
I1
sS'voids'
p75
I1
sS'horcruxes'
p76
I1
sS'beaten'
p77
I5
sS'fingers'
p78
I1
sS'liberty'
p79
I12
sS'children'
p80
I4
sS'spokesman'
p81
I1
sS'daesh'
p82
I1
sS'salbuch'
p83
I1
sS'endorse'
p84
I6
sS'new'
p85
I67
sS'ever'
p86
I7
sS'seeks'
p87
I2
sS'shocks'
p88
I6
sS'hero'
p89
I2
sS'screams'
p90
I1
sS'reporter'
p91
I15
sS'humiliating'
p92
I2
sS'never'
p93
I7
sS'richest'
p94
I1
sS'here'
p95
I14
sS'met'
p96
I1
sS'replacements'
p97
I1
sS'china'
p98
I4
sS'active'
p99
I1
sS'path'
p100
I5
sS'100'
p101
I4
sS'establishment'
p102
I5
sS'haus'
p103
I1
sS'temps'
p104
I1
sS'grenze'
p105
I1
sS'daughter'
p106
I7
sS'employees'
p107
I1
sS'changed'
p108
I3
sS'envoy'
p109
I2
sS'approaches'
p110
I1
sS'reports'
p111
I2
sS'ignoring'
p112
I1
sS'published'
p113
I1
sS'credit'
p114
I1
sS'harass'
p115
I1
sS'permit'
p116
I1
sS'military'
p117
I3
sS'changes'
p118
I2
sS'pantano'
p119
I1
sS'pendant'
p120
I1
sS'criticism'
p121
I1
sS'fantastic'
p122
I1
sS'projection'
p123
I1
sS'campaign'
p124
I42
sS'conservatives'
p125
I2
sS'reagan'
p126
I2
sS'replace'
p127
I3
sS'brought'
p128
I1
sS'gaffe'
p129
I1
sS'dauphin'
p130
I1
sS'total'
p131
I1
sS'heathrow'
p132
I1
sS'opponents'
p133
I1
sS'plot'
p134
I1
sS'cheating'
p135
I2
sS'would'
p136
I16
sS'army'
p137
I2
sS'idyll'
p138
I1
sS'century'
p139
I4
sS'dni'
p140
I1
sS'negative'
p141
I3
sS'clickhole'
p142
I1
sS'call'
p143
I9
sS'until'
p144
I1
sS'spike'
p145
I1
sS'indiana'
p146
I1
sS'creates'
p147
I1
sS'abusing'
p148
I1
sS'funciona'
p149
I1
sS'supporters'
p150
I44
sS'dismantled'
p151
I1
sS'successful'
p152
I1
sS'expose'
p153
I2
sS'sortie'
p154
I1
sS'aware'
p155
I1
sS'warn'
p156
I1
sS'phone'
p157
I2
sS'kgb'
p158
I1
sS'arms'
p159
I1
sS'lord'
p160
I1
sS'91'
p161
I1
sS'90'
p162
I1
sS'hold'
p163
I1
sS'95'
p164
I1
sS'blocking'
p165
I1
sS'must'
p166
I6
sS'me'
p167
I9
sS'1990'
p168
I1
sS'word'
p169
I3
sS'rights'
p170
I1
sS'work'
p171
I5
sS'refusing'
p172
I2
sS'theories'
p173
I1
sS'era'
p174
I3
sS'erb'
p175
I1
sS'mr'
p176
I7
sS'my'
p177
I11
sS'could'
p178
I23
sS'advisors'
p179
I1
sS'give'
p180
I4
sS'moveon'
p181
I1
sS'bennett'
p182
I1
sS'heartless'
p183
I1
sS'walsh'
p184
I2
sS'want'
p185
I7
sS'rig'
p186
I2
sS'counseling'
p187
I1
sS'david'
p188
I10
sS'ones'
p189
I1
sS'admission'
p190
I1
sS'end'
p191
I7
sS'recovery'
p192
I1
sS'turn'
p193
I2
sS'agony'
p194
I1
sS'soros'
p195
I18
sS'nuts'
p196
I1
sS'damage'
p197
I1
sS'machine'
p198
I2
sS'how'
p199
I29
sS'amazing'
p200
I3
sS'writers'
p201
I8
sS'opposite'
p202
I1
sS'interview'
p203
I10
sS'turk'
p204
I1
sS'pig'
p205
I2
sS'minority'
p206
I1
sS'mess'
p207
I1
sS'after'
p208
I38
sS'vicious'
p209
I1
sS'wrong'
p210
I4
sS'fat'
p211
I2
sS'president'
p212
I64
sS'law'
p213
I3
sS'las'
p214
I1
sS'attempt'
p215
I4
sS'wins'
p216
I25
sS'attracts'
p217
I1
sS'revolt'
p218
I2
sS'lost'
p219
I7
sS'sickening'
p220
I1
sS'funniest'
p221
I1
sS'ultimate'
p222
I4
sS'keeps'
p223
I1
sS'worst'
p224
I4
sS'grannys'
p225
I1
sS'democratic'
p226
I6
sS'order'
p227
I8
sS'wind'
p228
I1
sS'nyc'
p229
I1
sS'executed'
p230
I2
sS'unfolds'
p231
I1
sS'office'
p232
I6
sS'deck'
p233
I1
sS'over'
p234
I31
sS'gettysburg'
p235
I1
sS'misconduct'
p236
I2
sS'wrought'
p237
I1
sS'before'
p238
I14
sS'licitation'
p239
I1
sS'reprises'
p240
I1
sS'fit'
p241
I3
sS'hypocrisy'
p242
I1
sS'personal'
p243
I1
sS'fix'
p244
I2
sS'christie'
p245
I1
sS'destroyed'
p246
I7
sS'production'
p247
I2
sS'stalemate'
p248
I1
sS'weeks'
p249
I3
sS'versus'
p250
I1
sS'then'
p251
I5
sS'them'
p252
I10
sS'iowa'
p253
I3
sS'thrones'
p254
I1
sS'yells'
p255
I1
sS'safe'
p256
I2
sS'roost'
p257
I1
sS'intimidation'
p258
I4
sS'break'
p259
I2
sS'80s'
p260
I1
sS'bang'
p261
I1
sS'therapy'
p262
I1
sS'effects'
p263
I1
sS'they'
p264
I32
sS'schools'
p265
I3
sS'yourself'
p266
I1
sS'lifelong'
p267
I1
sS'bank'
p268
I1
sS'represents'
p269
I1
sS'indictment'
p270
I1
sS'alex'
p271
I1
sS'fails'
p272
I1
sS'arrested'
p273
I6
sS'mcfaul'
p274
I1
sS'victories'
p275
I1
sS'affiliate'
p276
I1
sS'victory'
p277
I48
sS'each'
p278
I1
sS'370'
p279
I1
sS'went'
p280
I1
sS'european'
p281
I1
sS'interfering'
p282
I1
sS'side'
p283
I1
sS'lasting'
p284
I1
sS'candy'
p285
I1
sS'financial'
p286
I2
sS'independent'
p287
I1
sS'crimes'
p288
I2
sS'aide'
p289
I3
sS'strips'
p290
I1
sS'stealing'
p291
I3
sS'ghosts'
p292
I1
sS'sounds'
p293
I3
sS'trending'
p294
I1
sS'network'
p295
I10
sS'driving'
p296
I1
sS'pussies'
p297
I1
sS'god'
p298
I3
sS'psychic'
p299
I1
sS'lurks'
p300
I1
sS're'
p301
I10
sS'100mln'
p302
I1
sS'adjust'
p303
I1
sS'surprise'
p304
I7
sS'gov'
p305
I2
sS'strategist'
p306
I1
sS'gop'
p307
I12
sS'independence'
p308
I1
sS'foundation'
p309
I3
sS'arizona'
p310
I4
sS'turning'
p311
I1
sS'hemorrhaging'
p312
I1
sS'love'
p313
I2
sS'icke'
p314
I1
sS'certifies'
p315
I1
sS'threatened'
p316
I3
sS'little'
p317
I6
sS'free'
p318
I5
sS'mourning'
p319
I1
sS'admits'
p320
I5
sS'thieves'
p321
I1
sS'disputes'
p322
I1
sS'distrubing'
p323
I1
sS'storm'
p324
I1
sS'unauthorized'
p325
I1
sS'hollyweirdos'
p326
I1
sS'elecciones'
p327
I1
sS'exposing'
p328
I1
sS'created'
p329
I1
sS'starts'
p330
I4
sS'correctness'
p331
I2
sS'days'
p332
I6
sS'steward'
p333
I1
sS'pence'
p334
I5
sS'reprimanded'
p335
I1
sS'disturbed'
p336
I1
sS'oppose'
p337
I1
sS'moving'
p338
I3
sS'footsteps'
p339
I1
sS'stewart'
p340
I1
sS'size'
p341
I1
sS'dankof'
p342
I2
sS'already'
p343
I10
sS'crowning'
p344
I1
sS'economists'
p345
I1
sS'attractions'
p346
I1
sS'primary'
p347
I1
sS'hearing'
p348
I1
sS'hook'
p349
I2
sS'redflag'
p350
I2
sS'another'
p351
I2
sS'scissors'
p352
I1
sS'comic'
p353
I1
sS'ditch'
p354
I1
sS'electronic'
p355
I3
sS'hood'
p356
I1
sS'withheld'
p357
I1
sS'brock'
p358
I1
sS'magnificent'
p359
I1
sS'lecturing'
p360
I1
sS'service'
p361
I4
sS'rejects'
p362
I2
sS'top'
p363
I11
sS'10m'
p364
I1
sS'approximately'
p365
I1
sS'regierungsbildung'
p366
I1
sS'ballistic'
p367
I1
sS'too'
p368
I2
sS'miller'
p369
I1
sS'hollywood'
p370
I17
sS'john'
p371
I5
sS'dogs'
p372
I2
sS'listen'
p373
I3
sS'urban'
p374
I1
sS'murder'
p375
I1
sS'fiery'
p376
I1
sS'haga'
p377
I1
sS'ted'
p378
I1
sS'gym'
p379
I1
sS'leaking'
p380
I1
sS'took'
p381
I4
sS'western'
p382
I1
sS'preposterous'
p383
I1
sS'brushed'
p384
I1
sS'begins'
p385
I5
sS'chef'
p386
I2
sS'trumponomics'
p387
I1
sS'anxiety'
p388
I1
sS'target'
p389
I1
sS'showed'
p390
I1
sS'coward'
p391
I3
sS'immigrants'
p392
I3
sS'tree'
p393
I1
sS'second'
p394
I2
sS'trumpland'
p395
I2
sS'nations'
p396
I2
sS'preparation'
p397
I1
sS'matter'
p398
I2
sS'persuade'
p399
I1
sS'guilt'
p400
I1
sS'budget'
p401
I1
sS'investigators'
p402
I1
sS'powers'
p403
I1
sS'fashion'
p404
I1
sS'sees'
p405
I3
sS'heralds'
p406
I1
sS'ran'
p407
I1
sS'mind'
p408
I2
sS'assange'
p409
I7
sS'cking'
p410
I1
sS'outperforms'
p411
I1
sS'rap'
p412
I3
sS'seen'
p413
I1
sS'seek'
p414
I1
sS'tells'
p415
I12
sS'ray'
p416
I1
sS'forced'
p417
I1
sS'laden'
p418
I1
sS'climate'
p419
I3
sS'sound'
p420
I1
sS'recommended'
p421
I1
sS'causing'
p422
I1
sS'chess'
p423
I1
sS'doors'
p424
I1
sS'hatch'
p425
I1
sS'snowflake'
p426
I1
sS'concedes'
p427
I3
sS'45th'
p428
I4
sS'exactly'
p429
I1
sS'committing'
p430
I2
sS'sue'
p431
I2
sS'looming'
p432
I1
sS'kelly'
p433
I5
sS'mouth'
p434
I1
sS'letter'
p435
I5
sS'commanding'
p436
I1
sS'electionnight'
p437
I1
sS'slides'
p438
I2
sS'pollster'
p439
I1
sS'episode'
p440
I1
sS'rogers'
p441
I1
sS'released'
p442
I1
sS'professor'
p443
I3
sS'camp'
p444
I3
sS'm'
p445
I18
sS'dog'
p446
I3
sS'crowd'
p447
I5
sS'swamp'
p448
I5
sS'points'
p449
I6
sS'chris'
p450
I4
sS'voting'
p451
I29
sS'er'
p452
I1
sS'dow'
p453
I2
sS'came'
p454
I2
sS'reserve'
p455
I1
sS'anything'
p456
I2
sS'trashes'
p457
I1
sS'pope'
p458
I1
sS'tequila'
p459
I1
sS'queen'
p460
I2
sS'sexist'
p461
I1
sS'appeal'
p462
I1
sS'qaeda'
p463
I1
sS'radio'
p464
I3
sS'tacitly'
p465
I1
sS'cuban'
p466
I1
sS'earth'
p467
I1
sS'nevada'
p468
I3
sS'domicilio'
p469
I1
sS'crush'
p470
I1
sS'unleashes'
p471
I1
sS'spite'
p472
I1
sS'explain'
p473
I1
sS'debts'
p474
I1
sS'minnesota'
p475
I1
sS'bush'
p476
I6
sS'trumpflation'
p477
I1
sS'jailed'
p478
I1
sS'wearing'
p479
I3
sS'do'
p480
I10
sS'wide'
p481
I1
sS'rwnj'
p482
I1
sS'de'
p483
I7
sS'stop'
p484
I8
sS'dc'
p485
I7
sS'tipp'
p486
I1
sS'report'
p487
I12
sS'nasty'
p488
I4
sS'du'
p489
I3
sS'dr'
p490
I12
sS'learned'
p491
I1
sS'unfortunately'
p492
I1
sS'runs'
p493
I1
sS'bar'
p494
I2
sS'greens'
p495
I1
sS'countries'
p496
I3
sS'spokesperson'
p497
I1
sS'officially'
p498
I1
sS'shape'
p499
I1
sS'bay'
p500
I1
sS'twice'
p501
I1
sS'bad'
p502
I4
sS'disney'
p503
I1
sS'release'
p504
I1
sS'estados'
p505
I1
sS'told'
p506
I4
sS'steal'
p507
I11
sS'effing'
p508
I1
sS'secretary'
p509
I5
sS'victim'
p510
I2
sS'swept'
p511
I1
sS'reporting'
p512
I1
sS'resist'
p513
I2
sS'depends'
p514
I1
sS'result'
p515
I1
sS'dillary'
p516
I1
sS'discussions'
p517
I1
sS'iran'
p518
I8
sS'best'
p519
I2
sS'roberts'
p520
I5
sS'00'
p521
I1
sS'said'
p522
I9
sS'mitch'
p523
I1
sS'away'
p524
I2
sS'interviewing'
p525
I1
sS'artificial'
p526
I2
sS'globalism'
p527
I1
sS'smacks'
p528
I1
sS'mug'
p529
I1
sS'score'
p530
I1
sS'finger'
p531
I2
sS'globalist'
p532
I3
sS'hopefully'
p533
I1
sS'drawn'
p534
I1
sS'reflation'
p535
I1
sS'suepennontwitte'
p536
I1
sS'we'
p537
I32
sS'men'
p538
I3
sS'nationwide'
p539
I1
sS'vows'
p540
I2
sS'rolled'
p541
I1
sS'hallways'
p542
I1
sS'boss'
p543
I1
sS'ww'
p544
I1
sS'admirals'
p545
I4
sS'deby'
p546
I1
sS'flashes'
p547
I2
sS'news'
p548
I42
sS'dons'
p549
I1
sS'debt'
p550
I1
sS'newt'
p551
I2
sS'blowback'
p552
I1
sS'faced'
p553
I2
sS'cop'
p554
I2
sS'protect'
p555
I1
sS'cor'
p556
I1
sS'accused'
p557
I2
sS'country'
p558
I5
sS'uncertainty'
p559
I1
sS'peacenik'
p560
I1
sS'pitt'
p561
I1
sS'against'
p562
I30
sS'una'
p563
I1
sS'nicht'
p564
I1
sS'games'
p565
I1
sS'receives'
p566
I3
sS'brad'
p567
I1
sS'obamas'
p568
I1
sS'com'
p569
I1
sS'asked'
p570
I4
sS'con'
p571
I1
sS'pre'
p572
I1
sS'alternate'
p573
I1
sS'agitators'
p574
I1
sS'memo'
p575
I3
sS'durante'
p576
I1
sS'dorm'
p577
I1
sS'259'
p578
I1
sS'aftermath'
p579
I1
sS'marmite'
p580
I1
sS'oliver'
p581
I1
sS'trust'
p582
I3
sS'hitler'
p583
I5
sS'speak'
p584
I1
sS'conference'
p585
I2
sS'signals'
p586
I1
sS'targeting'
p587
I1
sS'asks'
p588
I4
sS'source'
p589
I1
sS'victimizing'
p590
I1
sS'three'
p591
I8
sS'been'
p592
I6
sS'cyrus'
p593
I1
sS'confident'
p594
I1
sS'trigger'
p595
I3
sS'fahrenthold'
p596
I1
sS'deportations'
p597
I1
sS'website'
p598
I2
sS'obese'
p599
I1
sS'life'
p600
I8
sS'anchors'
p601
I1
sS'eastern'
p602
I7
sS'hospitalized'
p603
I1
sS'dismiss'
p604
I2
sS'worker'
p605
I2
sS'marijuana'
p606
I1
sS'generals'
p607
I4
sS'child'
p608
I3
sS'catch'
p609
I2
sS'niece'
p610
I1
sS'worked'
p611
I2
sS'endingfed'
p612
I9
sS'spin'
p613
I1
sS'convening'
p614
I1
sS'has'
p615
I47
sS'tank'
p616
I4
sS'presidency'
p617
I25
sS'launches'
p618
I1
sS'air'
p619
I5
sS'lesser'
p620
I2
sS'referendum'
p621
I1
sS'leaves'
p622
I1
sS'aid'
p623
I2
sS'property'
p624
I2
sS'k'
p625
I3
sS'chilling'
p626
I4
sS'mistake'
p627
I2
sS'consolidating'
p628
I1
sS'cons'
p629
I1
sS'project'
p630
I1
sS'mexico'
p631
I10
sS'whine'
p632
I1
sS'is'
p633
I157
sS'dumped'
p634
I1
sS'it'
p635
I62
sS'defeated'
p636
I1
sS'taunts'
p637
I1
sS'cant'
p638
I6
sS'experts'
p639
I4
sS'il'
p640
I2
sS'in'
p641
I231
sS'faked'
p642
I1
sS'campaigning'
p643
I2
sS'if'
p644
I58
sS'rapprochement'
p645
I1
sS'confirmed'
p646
I4
sS'ignored'
p647
I2
sS'myst'
p648
I1
sS'things'
p649
I8
sS'make'
p650
I17
sS'craigslist'
p651
I1
sS'avoids'
p652
I1
sS'yearns'
p653
I1
sS'several'
p654
I1
sS'confronting'
p655
I1
sS'grows'
p656
I1
sS'kindly'
p657
I1
sS'trumpton'
p658
I1
sS'meets'
p659
I1
sS'livre'
p660
I1
sS'outspends'
p661
I1
sS'campagne'
p662
I1
sS'blames'
p663
I4
sS'social'
p664
I2
sS'evil'
p665
I3
sS'hand'
p666
I3
sS'action'
p667
I1
sS'bloomberg'
p668
I1
sS'bunker'
p669
I1
sS'opportunity'
p670
I2
sS'blamed'
p671
I1
sS'knockoff'
p672
I1
sS'kept'
p673
I1
sS'inherit'
p674
I2
sS'changer'
p675
I1
sS'hispanic'
p676
I2
sS'contact'
p677
I1
sS'greatest'
p678
I2
sS'mathews'
p679
I1
sS'mother'
p680
I4
sS'claims'
p681
I10
sS'the'
p682
I439
sS'backhanded'
p683
I1
sS'musical'
p684
I1
sS'left'
p685
I7
sS'spurred'
p686
I1
sS'impression'
p687
I1
sS'just'
p688
I73
sS'photo'
p689
I4
sS'unfair'
p690
I1
sS'proposes'
p691
I2
sS'financially'
p692
I1
sS'thanks'
p693
I3
sS'human'
p694
I3
sS'facts'
p695
I1
sS'tattooed'
p696
I1
sS'yet'
p697
I2
sS'divide'
p698
I1
sS'chaffetz'
p699
I1
sS'ham'
p700
I1
sS'candidate'
p701
I5
sS'cornell'
p702
I1
sS'similarities'
p703
I1
sS'assassination'
p704
I5
sS'had'
p705
I6
sS'sexier'
p706
I1
sS'macdonald'
p707
I2
sS'issuing'
p708
I1
sS'board'
p709
I1
sS'collapse'
p710
I3
sS'prison'
p711
I1
sS'save'
p712
I6
sS'hat'
p713
I1
sS'trashed'
p714
I1
sS'gave'
p715
I8
sS'mocked'
p716
I1
sS'casting'
p717
I1
sS'tactic'
p718
I1
sS'dignity'
p719
I1
sS'rnc'
p720
I1
sS'survival'
p721
I1
sS'possible'
p722
I4
sS'arab'
p723
I3
sS'possibly'
p724
I2
sS'bastards'
p725
I1
sS'birth'
p726
I1
sS'judge'
p727
I4
sS'vetting'
p728
I1
sS'apart'
p729
I1
sS'county'
p730
I1
sS'gift'
p731
I1
sS'50'
p732
I3
sS'remind'
p733
I1
sS'steps'
p734
I2
sS'zombies'
p735
I1
sS'night'
p736
I4
sS'hung'
p737
I1
sS'security'
p738
I4
sS'antique'
p739
I1
sS'hoax'
p740
I1
sS'attorney'
p741
I3
sS'right'
p742
I11
sS'old'
p743
I12
sS'deal'
p744
I15
sS'people'
p745
I24
sS'sends'
p746
I1
sS'sonntagsfrage'
p747
I1
sS'proudly'
p748
I1
sS'dead'
p749
I3
sS'oh'
p750
I1
sS'donald'
p751
I228
sS'usher'
p752
I1
sS'election'
p753
I74
sS'escape'
p754
I1
sS'dear'
p755
I2
sS'congratulate'
p756
I1
sS'combat'
p757
I1
sS'for'
p758
I205
sS'purple'
p759
I1
sS'dropping'
p760
I1
sS'zionist'
p761
I3
sS'fox'
p762
I8
sS'comments'
p763
I2
sS'everything'
p764
I2
sS'asking'
p765
I1
sS'cnn'
p766
I19
sS'surging'
p767
I1
sS'confusion'
p768
I3
sS'beating'
p769
I2
sS'brigaded'
p770
I1
sS'zulema'
p771
I1
sS'ww3'
p772
I3
sS'deleted'
p773
I1
sS'burn'
p774
I2
sS'lefty'
p775
I1
sS'discount'
p776
I1
sS'criminals'
p777
I2
sS'einsatzgruppen'
p778
I1
sS'losing'
p779
I2
sS'eye'
p780
I1
sS'post'
p781
I7
sS'super'
p782
I1
sS'yoko'
p783
I1
sS'zur'
p784
I1
sS'banked'
p785
I2
sS'dnc'
p786
I3
sS'derailed'
p787
I1
sS'filipina'
p788
I1
sS'dollars'
p789
I1
sS'months'
p790
I6
sS'accepts'
p791
I1
sS'o'
p792
I2
sS'collett'
p793
I3
sS'undocumented'
p794
I2
sS'ensure'
p795
I1
sS'mismo'
p796
I1
sS'commit'
p797
I2
sS'palestinians'
p798
I1
sS'bannon'
p799
I3
sS'duke'
p800
I14
sS'donates'
p801
I1
sS'civil'
p802
I5
sS'methepeople'
p803
I2
sS'vorhaben'
p804
I1
sS'profession'
p805
I1
sS'appoints'
p806
I2
sS'son'
p807
I3
sS'down'
p808
I18
sS'lies'
p809
I5
sS'slurs'
p810
I1
sS'sot'
p811
I1
sS'electorate'
p812
I1
sS'honored'
p813
I1
sS'seraient'
p814
I1
sS'communists'
p815
I2
sS'east'
p816
I1
sS'art'
p817
I2
sS'lashes'
p818
I1
sS'comparing'
p819
I1
sS'support'
p820
I9
sS'neocons'
p821
I2
sS'raped'
p822
I2
sS'stuck'
p823
I1
sS'editor'
p824
I1
sS'way'
p825
I7
sS'greatness'
p826
I1
sS'was'
p827
I19
sS'war'
p828
I29
sS'happy'
p829
I1
sS'lowest'
p830
I1
sS'wahabbi'
p831
I1
sS'offer'
p832
I1
sS'attempted'
p833
I1
sS'becoming'
p834
I1
sS'paypal'
p835
I1
sS'forever'
p836
I3
sS'ford'
p837
I4
sS'garages'
p838
I1
sS'seguir'
p839
I1
sS'hear'
p840
I1
sS'melania'
p841
I12
sS'survive'
p842
I2
sS'bern'
p843
I1
sS'true'
p844
I5
sS'fort'
p845
I1
sS'reset'
p846
I4
sS'univision'
p847
I1
sS'isis'
p848
I7
sS'trumppledge'
p849
I1
sS'muster'
p850
I1
sS'baldwins'
p851
I1
sS'staged'
p852
I1
sS'tell'
p853
I1
sS'cloughley'
p854
I1
sS'lays'
p855
I1
sS'trumpkins'
p856
I1
sS'more'
p857
I17
sS'propaganda'
p858
I6
sS'delete'
p859
I2
sS'repartis'
p860
I1
sS'150'
p861
I1
sS'hotlines'
p862
I1
sS'bedouin'
p863
I1
sS'liberal'
p864
I7
sS'moore'
p865
I7
sS'snowden'
p866
I3
sS'stronger'
p867
I1
sS'erupts'
p868
I2
sS'flaw'
p869
I1
sS'proven'
p870
I2
sS'evidence'
p871
I2
sS'proves'
p872
I6
sS'promised'
p873
I4
sS'valentin'
p874
I1
sS'shines'
p875
I1
sS'check'
p876
I2
sS'liberalism'
p877
I1
sS'trumprolled'
p878
I1
sS'palestinian'
p879
I1
sS'no'
p880
I18
sS'na'
p881
I1
sS'nc'
p882
I1
sS'when'
p883
I16
sS'actor'
p884
I2
sS'reality'
p885
I5
sS'til'
p886
I1
sS'tim'
p887
I1
sS'setting'
p888
I1
sS'protester'
p889
I7
sS'holding'
p890
I2
sS'test'
p891
I1
sS'tie'
p892
I1
sS'unwilling'
p893
I1
sS'bossie'
p894
I1
sS'tess'
p895
I1
sS'brothers'
p896
I1
sS'dies'
p897
I1
sS'welcome'
p898
I3
sS'update'
p899
I2
sS'muslims'
p900
I2
sS'miranda'
p901
I1
sS'persecution'
p902
I1
sS'shatters'
p903
I1
sS'weekend'
p904
I1
sS'tapper'
p905
I2
sS'jones'
p906
I3
sS'younger'
p907
I1
sS'sanctions'
p908
I1
sS'happening'
p909
I3
sS'proposed'
p910
I2
sS'daily'
p911
I15
sS'uncovered'
p912
I1
sS'premiums'
p913
I1
sS'ardently'
p914
I1
sS'classmate'
p915
I2
sS'time'
p916
I10
sS'push'
p917
I2
sS'cares'
p918
I3
sS'dummies'
p919
I1
sS'ron'
p920
I2
sS'whoever'
p921
I1
sS'global'
p922
I6
sS'activated'
p923
I1
sS'focus'
p924
I2
sS'leads'
p925
I3
sS'muss'
p926
I1
sS'manager'
p927
I2
sS'ice'
p928
I1
sS'skin'
p929
I1
sS'milo'
p930
I1
sS'chair'
p931
I2
sS'primer'
p932
I2
sS'anticipation'
p933
I2
sS'praises'
p934
I1
sS'zone'
p935
I1
sS'rousing'
p936
I1
sS'father'
p937
I4
sS'disgusting'
p938
I2
sS'gutless'
p939
I1
sS'0'
p940
I1
sS'finally'
p941
I4
sS'promoting'
p942
I1
sS'devotes'
p943
I1
sS'dartmouth'
p944
I1
sS'hammers'
p945
I1
sS'huma'
p946
I1
sS'veterans'
p947
I4
sS'advises'
p948
I1
sS'adviser'
p949
I3
sS'inciting'
p950
I1
sS'advantage'
p951
I1
sS'billionaire'
p952
I2
sS'choice'
p953
I2
sS'intolerant'
p954
I1
sS'ckhalten'
p955
I1
sS'mourn'
p956
I1
sS'anonymous'
p957
I1
sS'ma'
p958
I1
sS'trouble'
p959
I1
sS'blast'
p960
I1
sS'exact'
p961
I2
sS'minute'
p962
I2
sS'cool'
p963
I1
sS'photoshops'
p964
I1
sS'unhinged'
p965
I1
sS'epic'
p966
I8
sS'deplorables'
p967
I2
sS'did'
p968
I18
sS'turns'
p969
I1
sS'philippines'
p970
I1
sS'posts'
p971
I4
sS'democrat'
p972
I5
sS'bikers'
p973
I2
sS'p'
p974
I2
sS'holliday'
p975
I1
sS'jordanian'
p976
I1
sS'team'
p977
I5
sS'quick'
p978
I1
sS'movie'
p979
I2
sS'guy'
p980
I3
sS'farren'
p981
I1
sS'pork'
p982
I1
sS'revolution'
p983
I13
sS'says'
p984
I47
sS'prediction'
p985
I3
sS'sign'
p986
I7
sS'blue'
p987
I1
sS'catatonic'
p988
I1
sS'pedo'
p989
I1
sS'norpoth'
p990
I1
sS'rough'
p991
I1
sS'pawns'
p992
I1
sS'victimization'
p993
I1
sS'agrees'
p994
I1
sS'cambriol'
p995
I1
sS'suspect'
p996
I2
sS'goes'
p997
I11
sS'offguardian'
p998
I1
sS'falling'
p999
I1
sS'ground'
p1000
I1
sS'celebrates'
p1001
I2
sS'cranston'
p1002
I1
sS'supporting'
p1003
I3
sS'medvedev'
p1004
I1
sS'jury'
p1005
I1
sS'guardian'
p1006
I3
sS'inauguration'
p1007
I3
sS'learn'
p1008
I1
sS'whiteness'
p1009
I1
sS'water'
p1010
I1
sS'knocked'
p1011
I1
sS'smearing'
p1012
I1
sS'address'
p1013
I2
sS'alone'
p1014
I1
sS'muskets'
p1015
I1
sS'teaches'
p1016
I1
sS'teacher'
p1017
I1
sS'change'
p1018
I13
sS'wait'
p1019
I2
sS'box'
p1020
I1
sS'assassinating'
p1021
I1
sS'incoming'
p1022
I1
sS'canadian'
p1023
I1
sS'brilliant'
p1024
I1
sS'root'
p1025
I1
sS'bot'
p1026
I1
sS'widening'
p1027
I1
sS'trial'
p1028
I1
sS'accomplished'
p1029
I1
sS'franklin'
p1030
I1
sS'priceless'
p1031
I1
sS'pillow'
p1032
I1
sS'elect'
p1033
I13
sS'colbert'
p1034
I2
sS'unsettled'
p1035
I1
sS'rejecting'
p1036
I1
sS'morale'
p1037
I1
sS'bribery'
p1038
I1
sS'betraying'
p1039
I1
sS'fake'
p1040
I5
sS'fbi'
p1041
I34
sS'crisis'
p1042
I3
sS'market'
p1043
I7
sS'red'
p1044
I2
sS'sledgehammer'
p1045
I3
sS'negress'
p1046
I1
sS'troops'
p1047
I1
sS'working'
p1048
I3
sS'prove'
p1049
I2
sS'positive'
p1050
I2
sS'angry'
p1051
I2
sS'visit'
p1052
I3
sS'predictions'
p1053
I1
sS'angela'
p1054
I1
sS'abroad'
p1055
I1
sS'scenarios'
p1056
I1
sS'insider'
p1057
I2
sS'live'
p1058
I8
sS'moyers'
p1059
I1
sS'memory'
p1060
I1
sS'films'
p1061
I1
sS'aclu'
p1062
I1
sS'today'
p1063
I5
sS'riot'
p1064
I2
sS'sessions'
p1065
I1
sS'treasury'
p1066
I1
sS'everywhere'
p1067
I2
sS'prophecy'
p1068
I2
sS'effort'
p1069
I1
sS'fly'
p1070
I1
sS'balistique'
p1071
I1
sS'laguardia'
p1072
I1
sS'car'
p1073
I6
sS'abortion'
p1074
I1
sS'hubris'
p1075
I1
sS'attacks'
p1076
I6
sS'can'
p1077
I15
sS'cam'
p1078
I1
sS'following'
p1079
I2
sS'making'
p1080
I5
sS'laughter'
p1081
I1
sS'nearest'
p1082
I1
sS'crazy'
p1083
I1
sS'trump'
p1084
I1328
sS'downfall'
p1085
I1
sS'awesome'
p1086
I1
sS'fuck'
p1087
I1
sS'agent'
p1088
I3
sS'supremacy'
p1089
I1
sS'heard'
p1090
I1
sS'stroke'
p1091
I1
sS'sued'
p1092
I4
sS'hides'
p1093
I1
sS'allowed'
p1094
I3
sS'counting'
p1095
I3
sS'clothing'
p1096
I1
sS'listens'
p1097
I1
sS'bankrupt'
p1098
I1
sS'fuming'
p1099
I1
sS'tilt'
p1100
I1
sS'bless'
p1101
I1
sS'marblenecltr'
p1102
I1
sS'moves'
p1103
I2
sS'nyt'
p1104
I4
sS'1'
p1105
I5
sS'rubio'
p1106
I1
sS'vital'
p1107
I1
sS'endorsement'
p1108
I1
sS'plus'
p1109
I1
sS'sworn'
p1110
I1
sS'whistleblower'
p1111
I1
sS'economy'
p1112
I4
sS'opeds'
p1113
I1
sS'map'
p1114
I1
sS'unbelievable'
p1115
I1
sS'cocktail'
p1116
I2
sS'huge'
p1117
I4
sS'may'
p1118
I9
sS'broad'
p1119
I1
sS'averted'
p1120
I1
sS'grounds'
p1121
I1
sS'birthday'
p1122
I1
sS'mad'
p1123
I1
sS'mocks'
p1124
I1
sS'wikileaks'
p1125
I6
sS'catcall'
p1126
I1
sS'revealed'
p1127
I5
sS'grow'
p1128
I1
sS'man'
p1129
I16
sS'scrambling'
p1130
I1
sS'sofort'
p1131
I1
sS'noun'
p1132
I1
sS'remember'
p1133
I2
sS'johnson'
p1134
I1
sS'6th'
p1135
I1
sS'wheelchair'
p1136
I1
sS'futures'
p1137
I1
sS'su'
p1138
I1
sS'st'
p1139
I1
sS'tale'
p1140
I1
sS'switch'
p1141
I1
sS'sh'
p1142
I1
sS'jail'
p1143
I2
sS'african'
p1144
I5
sS'basket'
p1145
I1
sS'talk'
p1146
I2
sS'outlet'
p1147
I1
sS'hands'
p1148
I1
sS'breaking'
p1149
I27
sS'serve'
p1150
I1
sS'rabbi'
p1151
I1
sS'flips'
p1152
I1
sS'years'
p1153
I7
sS'brain'
p1154
I1
sS'kellyanne'
p1155
I1
sS'kimmel'
p1156
I1
sS'statistical'
p1157
I1
sS'cuts'
p1158
I5
sS'kanye'
p1159
I2
sS'still'
p1160
I4
sS'birds'
p1161
I1
sS'accepted'
p1162
I1
sS'police'
p1163
I6
sS'thank'
p1164
I2
sS'jim'
p1165
I1
sS'hot'
p1166
I3
sS'ovala'
p1167
I1
sS'neocon'
p1168
I3
sS'offers'
p1169
I2
sS'pandering'
p1170
I1
sS'policy'
p1171
I15
sS'mail'
p1172
I1
sS'msnbc'
p1173
I8
sS'loophole'
p1174
I1
sS'petition'
p1175
I1
sS'happened'
p1176
I6
sS'non'
p1177
I4
sS'barron'
p1178
I1
sS'trumped'
p1179
I3
sS'condescendingly'
p1180
I1
sS'killer'
p1181
I2
sS'nation'
p1182
I7
sS'records'
p1183
I3
sS'hamilton'
p1184
I1
sS'cuchitril'
p1185
I1
sS'not'
p1186
I42
sS'1b'
p1187
I1
sS'now'
p1188
I21
sS'killed'
p1189
I5
sS'unpredictability'
p1190
I1
sS'wont'
p1191
I13
sS'term'
p1192
I3
sS'trucks'
p1193
I1
sS'james'
p1194
I2
sS'times'
p1195
I17
sS'drop'
p1196
I1
sS'einigung'
p1197
I1
sS'leak'
p1198
I1
sS'possibilities'
p1199
I1
sS'maher'
p1200
I1
sS'voleurs'
p1201
I1
sS'el'
p1202
I5
sS'bridging'
p1203
I1
sS'en'
p1204
I3
sS'significantly'
p1205
I4
sS'challenged'
p1206
I1
sS'crushing'
p1207
I3
sS'fires'
p1208
I1
sS'replay'
p1209
I1
sS'ex'
p1210
I6
sS'begun'
p1211
I1
sS'year'
p1212
I8
sS'eu'
p1213
I2
sS'et'
p1214
I2
sS'girl'
p1215
I5
sS'teams'
p1216
I1
sS'es'
p1217
I1
sS'plans'
p1218
I5
sS'canada'
p1219
I3
sS'rioters'
p1220
I2
sS'profit'
p1221
I1
sS'tensions'
p1222
I1
sS'irony'
p1223
I1
sS'looking'
p1224
I3
sS'investigation'
p1225
I14
sS'internet'
p1226
I3
sS'roger'
p1227
I1
sS'correct'
p1228
I1
sS'shows'
p1229
I8
sS'convocar'
p1230
I1
sS'trumpriot'
p1231
I1
sS'theory'
p1232
I2
sS'booby'
p1233
I1
sS'existentialism'
p1234
I1
sS'million'
p1235
I9
sS'albuquerque'
p1236
I1
sS'spies'
p1237
I1
sS'zuckerberg'
p1238
I1
sS'california'
p1239
I1
sS'miley'
p1240
I1
sS'lahren'
p1241
I1
sS'org'
p1242
I2
sS'ominous'
p1243
I1
sS'marine'
p1244
I1
sS'gofundme'
p1245
I1
sS'card'
p1246
I1
sS'advance'
p1247
I1
sS'collapsing'
p1248
I1
sS'transition'
p1249
I5
sS'tries'
p1250
I2
sS'british'
p1251
I1
sS'worrying'
p1252
I1
sS'demographic'
p1253
I1
sS'thing'
p1254
I4
sS'lindsey'
p1255
I1
sS'place'
p1256
I2
sS'massive'
p1257
I8
sS'swing'
p1258
I4
sS'tanking'
p1259
I1
sS'think'
p1260
I8
sS'first'
p1261
I25
sS'clevelander'
p1262
I1
sS'ono'
p1263
I1
sS'fleeing'
p1264
I1
sS'rachel'
p1265
I2
sS'flipping'
p1266
I2
sS'one'
p1267
I12
sS'injuring'
p1268
I1
sS'americans'
p1269
I15
sS'fast'
p1270
I1
sS'spanish'
p1271
I1
sS'vote'
p1272
I40
sS'impossible'
p1273
I1
sS'ring'
p1274
I1
sS'fight'
p1275
I3
sS'open'
p1276
I5
sS'george'
p1277
I12
sS'millions'
p1278
I4
sS'coalition'
p1279
I1
sS'city'
p1280
I4
sS'given'
p1281
I2
sS'truthfully'
p1282
I1
sS'silent'
p1283
I1
sS'district'
p1284
I1
sS'caught'
p1285
I11
sS'breed'
p1286
I1
sS'anyone'
p1287
I3
sS'checker'
p1288
I1
sS'2'
p1289
I9
sS'tragic'
p1290
I1
sS'terrifying'
p1291
I3
sS'lobbyists'
p1292
I1
sS'legally'
p1293
I1
sS'white'
p1294
I35
sS'ndchen'
p1295
I1
sS'friend'
p1296
I1
sS'gives'
p1297
I5
sS'eyes'
p1298
I1
sS'releases'
p1299
I1
sS'that'
p1300
I52
sS'fordert'
p1301
I1
sS'moscow'
p1302
I2
sS'surges'
p1303
I1
sS'proving'
p1304
I1
sS'cops'
p1305
I2
sS'hillary'
p1306
I150
sS'ridiculous'
p1307
I2
sS'mantenimiento'
p1308
I1
sS'shirley'
p1309
I1
sS'globalists'
p1310
I1
sS'than'
p1311
I14
sS'souriant'
p1312
I1
sS'11'
p1313
I8
sS'10'
p1314
I7
sS'13'
p1315
I5
sS'12'
p1316
I8
sS'14'
p1317
I2
sS'19'
p1318
I1
sS'optimism'
p1319
I2
sS'disavowing'
p1320
I1
sS'spokeswoman'
p1321
I1
sS'future'
p1322
I4
sS'disrespects'
p1323
I1
sS'were'
p1324
I7
sS'cards'
p1325
I3
sS'outcome'
p1326
I2
sS'russia'
p1327
I29
sS'declares'
p1328
I4
sS'and'
p1329
I180
sS'ana'
p1330
I1
sS'supremacist'
p1331
I3
sS'craig'
p1332
I4
sS'pro'
p1333
I8
sS'dass'
p1334
I2
sS'turned'
p1335
I1
sS'argument'
p1336
I2
sS'reno'
p1337
I4
sS'departure'
p1338
I1
sS'say'
p1339
I8
sS'conspiracy'
p1340
I3
sS'rent'
p1341
I1
sS'anger'
p1342
I1
sS'allen'
p1343
I2
sS'20k'
p1344
I2
sS'confesses'
p1345
I1
sS'any'
p1346
I3
sS'kevin'
p1347
I1
sS'sat'
p1348
I1
sS'corbett'
p1349
I1
sS'bashing'
p1350
I4
sS'veteran'
p1351
I1
sS'shocked'
p1352
I4
sS'trumpess'
p1353
I1
sS'note'
p1354
I1
sS'clintons'
p1355
I4
sS'take'
p1356
I9
sS'deux'
p1357
I1
sS'online'
p1358
I4
sS'shocker'
p1359
I4
sS'destroy'
p1360
I4
sS'vandals'
p1361
I2
sS'switching'
p1362
I5
sS'channel'
p1363
I1
sS'urge'
p1364
I1
sS'begin'
p1365
I1
sS'sure'
p1366
I2
sS'multiple'
p1367
I1
sS'ukrainian'
p1368
I1
sS'price'
p1369
I1
sS'indicted'
p1370
I1
sS'paid'
p1371
I9
sS'falls'
p1372
I2
sS'rematch'
p1373
I1
sS'assault'
p1374
I6
sS'misterdawg'
p1375
I1
sS'stormed'
p1376
I1
sS'america'
p1377
I54
sS'icon'
p1378
I1
sS'michelle'
p1379
I4
sS'lawn'
p1380
I1
sS'maddow'
p1381
I2
sS'average'
p1382
I3
sS'reform'
p1383
I2
sS'implications'
p1384
I1
sS'sussman'
p1385
I1
sS'defeating'
p1386
I1
sS'wing'
p1387
I1
sS'federal'
p1388
I4
sS'crowder'
p1389
I1
sS'salt'
p1390
I1
sS'filing'
p1391
I1
sS'gallup'
p1392
I1
sS'directed'
p1393
I1
sS'show'
p1394
I7
sS'german'
p1395
I1
sS'infuriate'
p1396
I1
sS'allegations'
p1397
I2
sS'russian'
p1398
I16
sS'propagandist'
p1399
I1
sS'spaces'
p1400
I1
sS'hack'
p1401
I1
sS'help'
p1402
I7
sS'weapons'
p1403
I1
sS'waves'
p1404
I2
sS'adolf'
p1405
I1
sS'cargo'
p1406
I1
sS'storms'
p1407
I1
sS'3'
p1408
I19
sS'crime'
p1409
I3
sS'only'
p1410
I6
sS'going'
p1411
I11
sS'black'
p1412
I34
sS'pollsters'
p1413
I1
sS'enthusiasm'
p1414
I1
sS'watching'
p1415
I1
sS'humiliate'
p1416
I1
sS'carolina'
p1417
I2
sS'ranking'
p1418
I1
sS'poroshenko'
p1419
I1
sS'ssy'
p1420
I1
sS'correctly'
p1421
I1
sS'get'
p1422
I13
sS'hostage'
p1423
I1
sS'designated'
p1424
I1
sS'cia'
p1425
I1
sS'charities'
p1426
I1
sS'rejoices'
p1427
I1
sS'nearly'
p1428
I2
sS'progress'
p1429
I2
sS'pas'
p1430
I1
sS'prime'
p1431
I1
sS'reveal'
p1432
I2
sS'kazanmak'
p1433
I1
sS'pimp'
p1434
I1
sS'bigly'
p1435
I1
sS'morning'
p1436
I2
sS'naked'
p1437
I1
sS'jokes'
p1438
I2
sS'bigoted'
p1439
I1
sS'losers'
p1440
I2
sS'predicted'
p1441
I7
sS'scott'
p1442
I2
sS'die'
p1443
I1
sS'where'
p1444
I1
sS'inside'
p1445
I4
sS'vision'
p1446
I4
sS'whispered'
p1447
I1
sS'declared'
p1448
I2
sS'marlene'
p1449
I1
sS'encourages'
p1450
I1
sS'signs'
p1451
I6
sS'ends'
p1452
I1
sS'huckabee'
p1453
I2
sS'elected'
p1454
I17
sS'college'
p1455
I7
sS'sean'
p1456
I2
sS'ignores'
p1457
I1
sS'ignorer'
p1458
I1
sS'israeli'
p1459
I5
sS'crooked'
p1460
I4
sS'harvey'
p1461
I1
sS'incite'
p1462
I2
sS'boy'
p1463
I1
sS'quality'
p1464
I1
sS'label'
p1465
I1
sS'vaccines'
p1466
I1
sS'outside'
p1467
I4
sS'gaga'
p1468
I1
sS'personalities'
p1469
I1
sS'between'
p1470
I9
sS'bombing'
p1471
I1
sS'checks'
p1472
I1
sS'affordable'
p1473
I1
sS'unidos'
p1474
I1
sS'heureux'
p1475
I1
sS'mexicans'
p1476
I1
sS'fearless'
p1477
I1
sS'jr'
p1478
I4
sS'blame'
p1479
I3
sS'smashed'
p1480
I2
sS'hurts'
p1481
I1
sS'comeback'
p1482
I1
sS'cities'
p1483
I1
sS'steyer'
p1484
I1
sS'undermine'
p1485
I1
sS'tug'
p1486
I1
sS'reaction'
p1487
I3
sS'dates'
p1488
I1
sS'daddy'
p1489
I2
sS'mob'
p1490
I4
sS'many'
p1491
I4
sS'according'
p1492
I2
sS'blasts'
p1493
I3
sS'tour'
p1494
I1
sS'comey'
p1495
I3
sS'semitic'
p1496
I1
sS'kaine'
p1497
I1
sS'expression'
p1498
I1
sS'comes'
p1499
I3
sS'deported'
p1500
I1
sS'concert'
p1501
I1
sS'pols'
p1502
I1
sS'afterwards'
p1503
I1
sS'color'
p1504
I7
sS'beyonce'
p1505
I1
sS'rieux'
p1506
I1
sS'nobel'
p1507
I1
sS'promises'
p1508
I12
sS'insist'
p1509
I1
sS'communicated'
p1510
I1
sS'60'
p1511
I5
sS'61'
p1512
I1
sS'anti'
p1513
I36
sS'stretched'
p1514
I1
sS'babbling'
p1515
I1
sS'cancel'
p1516
I3
sS'proved'
p1517
I2
sS'bizarre'
p1518
I1
sS'poll'
p1519
I18
sS'considers'
p1520
I1
sS'panics'
p1521
I1
sS'considering'
p1522
I2
sS'better'
p1523
I2
sS'rickards'
p1524
I1
sS'tuning'
p1525
I1
sS'capable'
p1526
I1
sS'come'
p1527
I5
sS'rebuild'
p1528
I2
sS'ucla'
p1529
I1
sS'concede'
p1530
I1
sS'mark'
p1531
I3
sS'dictator'
p1532
I1
sS'blackmails'
p1533
I1
sS'peaceful'
p1534
I2
sS'rancher'
p1535
I1
sS'billionaires'
p1536
I1
sS'kommonsentsjane'
p1537
I1
sS'500'
p1538
I2
sS'wants'
p1539
I7
sS'robbed'
p1540
I1
sS'wake'
p1541
I1
sS'minister'
p1542
I2
sS'penn'
p1543
I1
sS'ferrell'
p1544
I1
sS'former'
p1545
I10
sS'those'
p1546
I2
sS'case'
p1547
I3
sS'myself'
p1548
I1
sS'leitet'
p1549
I1
sS'casa'
p1550
I2
sS'developing'
p1551
I1
sS'these'
p1552
I9
sS'consultant'
p1553
I1
sS'mount'
p1554
I1
sS'polls'
p1555
I15
sS'voldemort'
p1556
I1
sS'cast'
p1557
I1
sS'diverse'
p1558
I1
sS'ongoing'
p1559
I1
sS'cancelled'
p1560
I1
sS'situation'
p1561
I1
sS'landslide'
p1562
I7
sS'taking'
p1563
I6
sS'ein'
p1564
I1
sS'fool'
p1565
I1
sS'zenith'
p1566
I1
sS'donors'
p1567
I2
sS'horta'
p1568
I1
sS'coffee'
p1569
I1
sS'commander'
p1570
I5
sS'middle'
p1571
I2
sS'licite'
p1572
I1
sS'someone'
p1573
I1
sS'embrace'
p1574
I1
sS'motivated'
p1575
I1
sS'flipped'
p1576
I1
sS'technology'
p1577
I1
sS'fame'
p1578
I11
sS'different'
p1579
I3
sS'revolutions'
p1580
I1
sS'shuts'
p1581
I1
sS'author'
p1582
I1
sS'threatens'
p1583
I3
sS'same'
p1584
I4
sS'gropes'
p1585
I1
sS'libertynews'
p1586
I1
sS'pac'
p1587
I3
sS'speech'
p1588
I14
sS'leftists'
p1589
I1
sS'events'
p1590
I1
sS'moronic'
p1591
I1
sS'breakdown'
p1592
I2
sS'jeffrey'
p1593
I1
sS'putin'
p1594
I29
sS'backfires'
p1595
I2
sS'director'
p1596
I4
sS'respected'
p1597
I1
sS'unqualified'
p1598
I1
sS'senator'
p1599
I1
sS'cartoon'
p1600
I1
sS'gingrich'
p1601
I4
sS'drain'
p1602
I2
sS'slanders'
p1603
I1
sS'sayers'
p1604
I1
sS'charges'
p1605
I3
sS'floor'
p1606
I1
sS'constitutional'
p1607
I1
sS'invites'
p1608
I1
sS'without'
p1609
I1
sS'congressmen'
p1610
I1
sS'model'
p1611
I3
sS'reward'
p1612
I1
sS'clipse'
p1613
I1
sS'charged'
p1614
I3
sS'ck'
p1615
I3
sS'neighborhood'
p1616
I1
sS'stake'
p1617
I1
sS'being'
p1618
I5
sS'money'
p1619
I8
sS'shouts'
p1620
I1
sS'violent'
p1621
I9
sS'wrecks'
p1622
I1
sS'kill'
p1623
I7
sS'touch'
p1624
I1
sS'extradition'
p1625
I2
sS'baldwin'
p1626
I1
sS'blow'
p1627
I1
sS'announcement'
p1628
I5
sS'76'
p1629
I1
sS'death'
p1630
I3
sS'deceiving'
p1631
I1
sS'feminist'
p1632
I1
sS'except'
p1633
I3
sS'blog'
p1634
I2
sS'lets'
p1635
I1
sS'4'
p1636
I10
sS'versa'
p1637
I1
sS'neomasculinity'
p1638
I2
sS'poised'
p1639
I2
sS'disrupt'
p1640
I1
sS'tuesday'
p1641
I2
sS'real'
p1642
I7
sS'jake'
p1643
I2
sS'zion'
p1644
I1
sS'around'
p1645
I2
sS'kills'
p1646
I1
sS'code'
p1647
I1
sS'read'
p1648
I1
sS'stung'
p1649
I1
sS'sums'
p1650
I1
sS'early'
p1651
I6
sS'moo'
p1652
I3
sS'similarly'
p1653
I1
sS'schedules'
p1654
I1
sS'libs'
p1655
I3
sS'using'
p1656
I2
sS'mccain'
p1657
I3
sS'lady'
p1658
I3
sS'dare'
p1659
I3
sS'adams'
p1660
I2
sS'endorses'
p1661
I4
sS'nusra'
p1662
I1
sS'miracle'
p1663
I1
sS'server'
p1664
I3
sS'facing'
p1665
I1
sS'tsunami'
p1666
I1
sS't'
p1667
I8
sS'always'
p1668
I3
sS'pundits'
p1669
I2
sS'tower'
p1670
I4
sS'passionate'
p1671
I1
sS'endorsed'
p1672
I6
sS'accidentally'
p1673
I1
sS'scamming'
p1674
I1
sS'climactic'
p1675
I1
sS'laugh'
p1676
I2
sS'exposed'
p1677
I4
sS'reveals'
p1678
I5
sS'dilbert'
p1679
I3
sS'exposes'
p1680
I1
sS'erase'
p1681
I3
sS'nigel'
p1682
I1
sS'confronts'
p1683
I1
sS'divine'
p1684
I1
sS'thinks'
p1685
I4
sS'pinkerton'
p1686
I1
sS'outs'
p1687
I4
sS'crites'
p1688
I1
sS'confirm'
p1689
I1
sS'blasted'
p1690
I1
sS'gewonnen'
p1691
I1
sS'legal'
p1692
I2
sS'conservative'
p1693
I3
sS'critical'
p1694
I2
sS'provides'
p1695
I1
sS'selbst'
p1696
I1
sS'knife'
p1697
I1
sS'hustle'
p1698
I1
sS'destroys'
p1699
I5
sS'arabia'
p1700
I1
sS'inevitable'
p1701
I1
sS'power'
p1702
I10
sS'database'
p1703
I2
sS'seconds'
p1704
I2
sS'nails'
p1705
I1
sS'stereotyped'
p1706
I1
sS'grovel'
p1707
I1
sS'broken'
p1708
I2
sS'leadership'
p1709
I1
sS'terrified'
p1710
I1
sS'assemble'
p1711
I1
sS'reversing'
p1712
I1
sS'francis'
p1713
I1
sS'handsomest'
p1714
I1
sS'throw'
p1715
I1
sS'on'
p1716
I166
sS'stone'
p1717
I1
sS'ok'
p1718
I1
sS'nafta'
p1719
I2
sS'smear'
p1720
I4
sS'violence'
p1721
I5
sS'favorite'
p1722
I5
sS'ideology'
p1723
I1
sS'historischer'
p1724
I1
sS'wolf'
p1725
I1
sS'stand'
p1726
I2
sS'neighbor'
p1727
I1
sS'act'
p1728
I4
sS'mean'
p1729
I3
sS'or'
p1730
I19
sS'op'
p1731
I2
sS'outlook'
p1732
I7
sS'protests'
p1733
I11
sS'fundraising'
p1734
I2
sS'burning'
p1735
I3
sS'follows'
p1736
I2
sS'nwo'
p1737
I1
sS'image'
p1738
I2
sS'rome'
p1739
I1
sS'nazi'
p1740
I1
sS'rising'
p1741
I1
sS'homeless'
p1742
I12
sS'elementary'
p1743
I1
sS'jerusalem'
p1744
I8
sS'your'
p1745
I7
sS'intervention'
p1746
I1
sS'legacy'
p1747
I3
sS'her'
p1748
I20
sS'there'
p1749
I6
sS'racism'
p1750
I3
sS'lol'
p1751
I3
sS'gravis'
p1752
I1
sS'start'
p1753
I6
sS'racist'
p1754
I5
sS'low'
p1755
I1
sS'stars'
p1756
I1
sS'tiffany'
p1757
I1
sS'scuttles'
p1758
I1
sS'billion'
p1759
I2
sS'750'
p1760
I2
sS'complete'
p1761
I2
sS'enough'
p1762
I3
sS'rider'
p1763
I1
sS'strikes'
p1764
I1
sS'cabinet'
p1765
I3
sS'gore'
p1766
I1
sS'farage'
p1767
I3
sS'implies'
p1768
I1
sS'trying'
p1769
I10
sS'with'
p1770
I100
sS'buying'
p1771
I2
sS'longer'
p1772
I1
sS'bryan'
p1773
I1
sS'october'
p1774
I3
sS'rage'
p1775
I4
sS'proceeds'
p1776
I1
sS'practically'
p1777
I1
sS'anyway'
p1778
I1
sS'avec'
p1779
I1
sS'katrina'
p1780
I1
sS'dirty'
p1781
I2
sS'abuser'
p1782
I1
sS'manuel'
p1783
I1
sS'russ'
p1784
I1
sS'politically'
p1785
I1
sS'agree'
p1786
I1
sS'connect'
p1787
I1
sS'encourges'
p1788
I1
sS'gone'
p1789
I1
sS'cnbc'
p1790
I2
sS'ab'
p1791
I1
sS'leaked'
p1792
I3
sS'ad'
p1793
I8
sS'ai'
p1794
I1
sS'describe'
p1795
I1
sS'am'
p1796
I3
sS'al'
p1797
I3
sS'deep'
p1798
I1
sS'general'
p1799
I3
sS'deen'
p1800
I1
sS'ap'
p1801
I2
sS'britain'
p1802
I1
sS'at'
p1803
I56
sS'file'
p1804
I2
sS'girlfriend'
p1805
I1
sS'politics'
p1806
I2
sS'explains'
p1807
I4
sS'syrian'
p1808
I3
sS'fill'
p1809
I1
sS'hit'
p1810
I4
sS'again'
p1811
I10
sS'idiot'
p1812
I3
sS'deserve'
p1813
I2
sS'green'
p1814
I1
sS'cyberbullying'
p1815
I1
sS'bragging'
p1816
I1
sS'hofstra'
p1817
I1
sS'implied'
p1818
I1
sS'5'
p1819
I11
sS'heathen'
p1820
I1
sS'gambling'
p1821
I1
sS'you'
p1822
I63
sS'forcing'
p1823
I1
sS'ny'
p1824
I4
sS'poor'
p1825
I2
sS'poop'
p1826
I1
sS'students'
p1827
I6
sS'teeth'
p1828
I1
sS'torched'
p1829
I1
sS'includes'
p1830
I3
sS'gifts'
p1831
I1
sS'gon'
p1832
I1
sS'coverage'
p1833
I2
sS'terry'
p1834
I1
sS'brands'
p1835
I1
sS'zuesse'
p1836
I3
sS'stocks'
p1837
I1
sS'kiev'
p1838
I1
sS'fiscal'
p1839
I1
sS'touts'
p1840
I1
sS'calls'
p1841
I23
sS'wife'
p1842
I4
sS'tricks'
p1843
I2
sS'mask'
p1844
I1
sS'sewer'
p1845
I1
sS'u'
p1846
I21
sS'treason'
p1847
I3
sS'bolton'
p1848
I2
sS'banishment'
p1849
I1
sS'happen'
p1850
I3
sS'all'
p1851
I27
sS'since'
p1852
I6
sS'liar'
p1853
I2
sS'forget'
p1854
I2
sS'pointing'
p1855
I2
sS'amtsantritt'
p1856
I1
sS'caused'
p1857
I2
sS'suburban'
p1858
I1
sS'dollar'
p1859
I3
sS'fuego'
p1860
I1
sS'unrest'
p1861
I2
sS'amish'
p1862
I1
sS'talks'
p1863
I2
sS'follow'
p1864
I3
sS'alt'
p1865
I6
sS'religious'
p1866
I1
sS'als'
p1867
I1
sS'causes'
p1868
I1
sS'shattered'
p1869
I1
sS'gorafi'
p1870
I8
sS'scared'
p1871
I1
sS'fellowship'
p1872
I1
sS'tv'
p1873
I7
sS'lining'
p1874
I1
sS'switched'
p1875
I3
sS'cheney'
p1876
I1
sS'realities'
p1877
I2
sS'riots'
p1878
I11
sS'to'
p1879
I409
sS'program'
p1880
I2
sS'nord'
p1881
I1
sS'passed'
p1882
I1
sS'pledges'
p1883
I1
sS'paying'
p1884
I1
sS'woman'
p1885
I16
sS'worse'
p1886
I4
sS'righted'
p1887
I1
sS'sitting'
p1888
I4
sS'very'
p1889
I7
sS'horror'
p1890
I2
sS'saved'
p1891
I1
sS'simpsons'
p1892
I1
sS'verb'
p1893
I1
sS'fan'
p1894
I2
sS'got'
p1895
I9
sS'stacked'
p1896
I1
sS'difference'
p1897
I1
sS'alien'
p1898
I1
sS'mothers'
p1899
I1
sS'louis'
p1900
I2
sS'celebrity'
p1901
I2
sS'list'
p1902
I7
sS'occurs'
p1903
I1
sS'sane'
p1904
I1
sS'saudi'
p1905
I1
sS'harry'
p1906
I4
sS'trumpism'
p1907
I1
sS'mosul'
p1908
I1
sS'benjamin'
p1909
I1
sS'tel'
p1910
I1
sS'instagram'
p1911
I2
sS'ten'
p1912
I1
sS'tea'
p1913
I1
sS'197'
p1914
I1
sS'streets'
p1915
I2
sS'grabs'
p1916
I2
sS'cash'
p1917
I1
sS'past'
p1918
I1
sS'zero'
p1919
I1
sS'lawyer'
p1920
I2
sS'nbc'
p1921
I1
sS'casual'
p1922
I1
sS'ribbon'
p1923
I1
sS'what'
p1924
I45
sS'abc'
p1925
I2
sS'richard'
p1926
I1
sS'readies'
p1927
I1
sS'witnesses'
p1928
I1
sS'sur'
p1929
I1
sS'90k'
p1930
I1
sS'experience'
p1931
I1
sS'public'
p1932
I2
sS'movement'
p1933
I3
sS'full'
p1934
I14
sS'christian'
p1935
I5
sS'compilation'
p1936
I1
sS'responded'
p1937
I1
sS'portrays'
p1938
I1
sS'revenge'
p1939
I3
sS'hours'
p1940
I2
sS'promoted'
p1941
I1
sS'suicide'
p1942
I2
sS'november'
p1943
I3
sS'bulls'
p1944
I1
sS'legend'
p1945
I1
sS'speeches'
p1946
I1
sS'bible'
p1947
I2
sS'substance'
p1948
I1
sS'ahead'
p1949
I4
sS'reactionaries'
p1950
I1
sS'allows'
p1951
I1
sS'creepy'
p1952
I2
sS'pics'
p1953
I1
sS'prior'
p1954
I1
sS'airport'
p1955
I2
sS'ramos'
p1956
I1
sS'horrified'
p1957
I1
sS'pick'
p1958
I4
sS'cathy'
p1959
I1
sS'katehon'
p1960
I4
sS'via'
p1961
I1
sS'megyn'
p1962
I6
sS'family'
p1963
I11
sS'buses'
p1964
I1
sS'obamacare'
p1965
I6
sS'africa'
p1966
I1
sS'tracking'
p1967
I2
sS'ask'
p1968
I1
sS'matthews'
p1969
I1
sS'pulls'
p1970
I2
sS'armed'
p1971
I2
sS've'
p1972
I5
sS'countdown'
p1973
I1
sS'wanted'
p1974
I2
sS'khan'
p1975
I2
sS'takes'
p1976
I9
sS'iraqi'
p1977
I1
sS'revelation'
p1978
I1
sS'two'
p1979
I10
sS'damaged'
p1980
I2
sS'likud'
p1981
I1
sS'conspiring'
p1982
I1
sS'bash'
p1983
I1
sS'6'
p1984
I2
sS'taken'
p1985
I1
sS'markets'
p1986
I5
sS'wipes'
p1987
I1
sS'authorization'
p1988
I1
sS'takei'
p1989
I2
sS'flat'
p1990
I2
sS'israel'
p1991
I9
sS'door'
p1992
I4
sS'knows'
p1993
I1
sS'grabbing'
p1994
I4
sS'company'
p1995
I1
sS'mixtape'
p1996
I1
sS'excuse'
p1997
I2
sS'flag'
p1998
I3
sS'broke'
p1999
I2
sS'particular'
p2000
I1
sS'known'
p2001
I1
sS'doom'
p2002
I1
sS'cult'
p2003
I2
sS'suffered'
p2004
I1
sS'glad'
p2005
I1
sS'helped'
p2006
I2
sS'keeping'
p2007
I1
sS'debates'
p2008
I1
sS'vladimir'
p2009
I3
sS'canceled'
p2010
I1
sS'science'
p2011
I1
sS'des'
p2012
I1
sS'sweeps'
p2013
I2
sS'guards'
p2014
I2
sS'offended'
p2015
I1
sS'remain'
p2016
I1
sS'v'
p2017
I3
sS'abandon'
p2018
I1
sS'converts'
p2019
I1
sS'grope'
p2020
I1
sS'male'
p2021
I1
sS'scramble'
p2022
I1
sS'evangelicals'
p2023
I2
sS'history'
p2024
I6
sS'beautiful'
p2025
I2
sS'superpreditors'
p2026
I1
sS'shark'
p2027
I1
sS'chlich'
p2028
I1
sS'scam'
p2029
I2
sS'pushes'
p2030
I1
sS'brown'
p2031
I1
sS'rodriguez'
p2032
I1
sS'onslaught'
p2033
I1
sS'boycott'
p2034
I1
sS'states'
p2035
I20
sS'biden'
p2036
I4
sS'protects'
p2037
I1
sS'numbers'
p2038
I7
sS'arise'
p2039
I1
sS'libertarian'
p2040
I4
sS'assassinated'
p2041
I2
sS'cultivate'
p2042
I1
sS'tolerant'
p2043
I1
sS'mehr'
p2044
I1
sS'simple'
p2045
I1
sS'murderous'
p2046
I1
sS'information'
p2047
I14
sS'needs'
p2048
I3
sS'answer'
p2049
I3
sS'court'
p2050
I3
sS'goal'
p2051
I2
sS'rather'
p2052
I1
sS'stickers'
p2053
I1
sS'clarke'
p2054
I2
sS'rye'
p2055
I1
sS'decisively'
p2056
I1
sS'maps'
p2057
I1
sS'reject'
p2058
I1
sS'stir'
p2059
I1
sS'idaho'
p2060
I1
sS'hoaxer'
p2061
I1
sS'plant'
p2062
I1
sS'ft'
p2063
I1
sS'tried'
p2064
I2
sS'rude'
p2065
I2
sS'uprising'
p2066
I2
sS'scouts'
p2067
I1
sS'idiocy'
p2068
I1
sS'breitbart'
p2069
I3
sS'plane'
p2070
I2
sS'blood'
p2071
I1
sS'countering'
p2072
I1
sS'coming'
p2073
I5
sS'rudy'
p2074
I1
sS'fl'
p2075
I2
sS'response'
p2076
I6
sS'a'
p2077
I192
sS'refuse'
p2078
I1
sS'short'
p2079
I4
sS'presstitutes'
p2080
I1
sS'shady'
p2081
I1
sS'doctor'
p2082
I1
sS'overnight'
p2083
I1
sS'throws'
p2084
I1
sS'coal'
p2085
I1
sS'wrench'
p2086
I1
sS'media'
p2087
I35
sS'dream'
p2088
I1
sS'playing'
p2089
I2
sS'imploding'
p2090
I2
sS'accuse'
p2091
I1
sS'soon'
p2092
I4
sS'trade'
p2093
I2
sS'disabled'
p2094
I3
sS'held'
p2095
I4
sS'isnt'
p2096
I2
sS'scientist'
p2097
I1
sS'through'
p2098
I2
sS'committee'
p2099
I1
sS'committed'
p2100
I1
sS'hell'
p2101
I1
sS'its'
p2102
I5
sS'islam'
p2103
I5
sS'24'
p2104
I1
sS'alle'
p2105
I1
sS'20'
p2106
I2
sS'22'
p2107
I1
sS'shifts'
p2108
I2
sS'pray'
p2109
I2
sS'assaulting'
p2110
I2
sS'border'
p2111
I1
sS'28'
p2112
I2
sS'29'
p2113
I1
sS'actually'
p2114
I1
sS'late'
p2115
I2
sS'reuters'
p2116
I1
sS'resentments'
p2117
I1
sS'stephen'
p2118
I2
sS'followers'
p2119
I1
sS'might'
p2120
I4
sS'nach'
p2121
I1
sS'lookout'
p2122
I4
sS'good'
p2123
I1
sS'somebody'
p2124
I2
sS'vigilantes'
p2125
I1
sS'seeking'
p2126
I1
sS'ceo'
p2127
I2
sS'musket'
p2128
I5
sS'predator'
p2129
I1
sS'brutally'
p2130
I1
sS'walls'
p2131
I3
sS'vomit'
p2132
I1
sS'starbucks'
p2133
I1
sS'communities'
p2134
I2
sS'formulating'
p2135
I1
sS'yr'
p2136
I2
sS'bollywood'
p2137
I1
sS'association'
p2138
I1
sS'desperately'
p2139
I2
sS'designation'
p2140
I1
sS'rant'
p2141
I2
sS'molotov'
p2142
I2
sS'truths'
p2143
I1
sS'spy'
p2144
I3
sS'tear'
p2145
I1
sS'token'
p2146
I1
sS'stopped'
p2147
I1
sS'knight'
p2148
I1
sS'found'
p2149
I1
sS'shocking'
p2150
I4
sS'friendship'
p2151
I1
sS'notes'
p2152
I1
sS'referred'
p2153
I1
sS'heavy'
p2154
I1
sS'week'
p2155
I3
sS'everyone'
p2156
I5
sS'aims'
p2157
I1
sS'house'
p2158
I21
sS'energy'
p2159
I3
sS'hard'
p2160
I2
sS'haley'
p2161
I1
sS'him'
p2162
I26
sS'gun'
p2163
I4
sS'oil'
p2164
I2
sS'expect'
p2165
I2
sS'operation'
p2166
I1
sS'beyond'
p2167
I2
sS'butthurt'
p2168
I2
sS'event'
p2169
I2
sS'really'
p2170
I3
sS'leave'
p2171
I7
sS'funding'
p2172
I2
sS'missed'
p2173
I1
sS'blacks'
p2174
I9
sS'shoaf'
p2175
I2
sS'robert'
p2176
I1
sS'surrounded'
p2177
I2
sS'induces'
p2178
I2
sS'projected'
p2179
I1
sS'douglas'
p2180
I1
sS'wwiii'
p2181
I1
sS'health'
p2182
I2
sS'hill'
p2183
I1
sS'7'
p2184
I12
sS'print'
p2185
I1
sS'plotting'
p2186
I2
sS'salute'
p2187
I1
sS'ass'
p2188
I1
sS'endlich'
p2189
I1
sS'bald'
p2190
I1
sS'disobedience'
p2191
I1
sS'bully'
p2192
I1
sS'motherfucker'
p2193
I1
sS'bombshell'
p2194
I6
sS'dit'
p2195
I1
sS'reason'
p2196
I11
sS'cookie'
p2197
I1
sS'execute'
p2198
I1
sS'dire'
p2199
I1
sS'put'
p2200
I9
sS'horse'
p2201
I1
sS'teach'
p2202
I1
sS'rises'
p2203
I1
sS'turnout'
p2204
I2
sS'speculation'
p2205
I1
sS'heroic'
p2206
I1
sS'bushes'
p2207
I1
sS'misogyny'
p2208
I1
sS'launch'
p2209
I1
sS'finland'
p2210
I3
sS'canceling'
p2211
I1
sS'terrible'
p2212
I1
sS'american'
p2213
I23
sS'threat'
p2214
I4
sS'bumper'
p2215
I1
sS'syria'
p2216
I9
sS'apocalypse'
p2217
I1
sS'lawsuits'
p2218
I3
sS'oppo'
p2219
I1
sS'eowyn'
p2220
I2
sS'feed'
p2221
I1
sS'farrakhan'
p2222
I1
sS'major'
p2223
I9
sS'hawks'
p2224
I1
sS'dont'
p2225
I15
sS'pentagon'
p2226
I2
sS'feel'
p2227
I1
sS'relate'
p2228
I1
sS'belligerent'
p2229
I1
sS'bullies'
p2230
I2
sS'number'
p2231
I3
sS'shameful'
p2232
I1
sS'feet'
p2233
I1
sS'cada'
p2234
I1
sS'brave'
p2235
I2
sS'done'
p2236
I5
sS'savchenko'
p2237
I1
sS'miss'
p2238
I5
sS'portraying'
p2239
I3
sS'story'
p2240
I5
sS'heads'
p2241
I2
sS'jew'
p2242
I1
sS'guaranteeing'
p2243
I1
sS'script'
p2244
I1
sS'leading'
p2245
I3
sS'interviews'
p2246
I1
sS'swipe'
p2247
I1
sS'threatening'
p2248
I3
sS'philanthropy'
p2249
I1
sS'hangs'
p2250
I1
sS'tradition'
p2251
I4
sS'180'
p2252
I1
sS'station'
p2253
I2
sS'statement'
p2254
I1
sS'tats'
p2255
I1
sS'disqualification'
p2256
I1
sS'shifted'
p2257
I4
sS'pipelines'
p2258
I1
sS'option'
p2259
I1
sS'para'
p2260
I1
sS'behind'
p2261
I12
sS'hotel'
p2262
I9
sS'discover'
p2263
I1
sS'part'
p2264
I1
sS'presstv'
p2265
I2
sS'weld'
p2266
I1
sS'trolls'
p2267
I2
sS'believe'
p2268
I2
sS'explodes'
p2269
I2
sS'obama'
p2270
I60
sS'king'
p2271
I2
sS'superluna'
p2272
I1
sS'b'
p2273
I1
sS'vomiting'
p2274
I1
sS'iranian'
p2275
I1
sS'gotten'
p2276
I1
sS'viviendo'
p2277
I1
sS'defends'
p2278
I2
sS'pennsylvania'
p2279
I1
sS'greg'
p2280
I1
sS'2020'
p2281
I1
sS'supposed'
p2282
I1
sS'insulted'
p2283
I1
sS'nailed'
p2284
I1
sS'toward'
p2285
I1
sS'shirts'
p2286
I1
sS'normal'
p2287
I1
sS'targets'
p2288
I2
sS'wasnt'
p2289
I1
sS'imports'
p2290
I1
sS'ebenfalls'
p2291
I1
sS'ages'
p2292
I1
sS'guarding'
p2293
I3
sS'graffiti'
p2294
I1
sS'engulf'
p2295
I1
sS'meltdown'
p2296
I1
sS'confirms'
p2297
I2
sS'orders'
p2298
I2
sS'vandalized'
p2299
I2
sS'lie'
p2300
I6
sS'lib'
p2301
I2
sS'blanca'
p2302
I2
sS'self'
p2303
I2
sS'goldbug'
p2304
I1
sS'officers'
p2305
I2
sS'payments'
p2306
I1
sS'also'
p2307
I2
sS'square'
p2308
I1
sS'build'
p2309
I6
sS'finding'
p2310
I1
sS'pouring'
p2311
I1
sS'mexiko'
p2312
I1
sS'dernier'
p2313
I1
sS'play'
p2314
I4
sS'towards'
p2315
I2
sS'critics'
p2316
I1
sS'electric'
p2317
I2
sS'rapist'
p2318
I1
sS'goldman'
p2319
I2
sS'literal'
p2320
I1
sS'reach'
p2321
I2
sS'chart'
p2322
I1
sS'macy'
p2323
I1
sS'react'
p2324
I1
sS'most'
p2325
I10
sS'75'
p2326
I1
sS'sponsored'
p2327
I1
sS'plan'
p2328
I9
sS'70'
p2329
I3
sS'nothing'
p2330
I4
sS'accepting'
p2331
I1
sS'achievement'
p2332
I2
sS'appear'
p2333
I2
sS'salary'
p2334
I1
sS'reductress'
p2335
I1
sS'viciously'
p2336
I2
sS'seize'
p2337
I1
sS'clear'
p2338
I2
sS'destruct'
p2339
I2
sS'funded'
p2340
I5
sS'clean'
p2341
I5
sS'parody'
p2342
I1
sS'attacking'
p2343
I3
sS'lying'
p2344
I3
sS'chairwoman'
p2345
I1
sS'golf'
p2346
I1
sS'rebels'
p2347
I1
sS'gold'
p2348
I9
sS'cdc'
p2349
I2
sS'celebrities'
p2350
I3
sS'toujours'
p2351
I1
sS'noam'
p2352
I2
sS'renegotiate'
p2353
I1
sS'carefully'
p2354
I1
sS'defender'
p2355
I1
sS'fine'
p2356
I1
sS'networks'
p2357
I1
sS'impact'
p2358
I1
sS'giant'
p2359
I1
sS'abandoning'
p2360
I1
sS'bff'
p2361
I1
sS'detaining'
p2362
I1
sS'mauer'
p2363
I1
sS'justice'
p2364
I4
sS'nervous'
p2365
I1
sS'ruin'
p2366
I1
sS'moby'
p2367
I1
sS'failed'
p2368
I3
sS'wayne'
p2369
I1
sS'central'
p2370
I1
sS'factor'
p2371
I2
sS'8'
p2372
I3
sS'discuss'
p2373
I1
sS'porque'
p2374
I1
sS'toronto'
p2375
I1
sS'his'
p2376
I59
sS'founding'
p2377
I1
sS'freaks'
p2378
I2
sS'mein'
p2379
I1
sS'famous'
p2380
I1
sS'courage'
p2381
I1
sS'preparing'
p2382
I1
sS'reporters'
p2383
I3
sS'during'
p2384
I6
sS'emails'
p2385
I7
sS'impide'
p2386
I1
sS'enemy'
p2387
I1
sS'catches'
p2388
I2
sS'spikes'
p2389
I1
sS'axed'
p2390
I1
sS'cry'
p2391
I5
sS'banking'
p2392
I1
sS'common'
p2393
I5
sS'activity'
p2394
I1
sS'x'
p2395
I1
sS'ivanka'
p2396
I4
sS'cringe'
p2397
I1
sS'wrote'
p2398
I1
sS'insane'
p2399
I2
sS'set'
p2400
I6
sS'patriotism'
p2401
I1
sS'dump'
p2402
I7
sS'creator'
p2403
I2
sS'intelligence'
p2404
I2
sS'opposing'
p2405
I1
sS'activists'
p2406
I1
sS'sex'
p2407
I5
sS'manning'
p2408
I1
sS'see'
p2409
I11
sS'defense'
p2410
I4
sS'dumb'
p2411
I1
sS'are'
p2412
I54
sS'duma'
p2413
I1
sS'close'
p2414
I1
sS'practices'
p2415
I1
sS'seal'
p2416
I1
sS'knees'
p2417
I1
sS'threats'
p2418
I3
sS'expert'
p2419
I2
sS'illegals'
p2420
I1
sS'erfolg'
p2421
I1
sS'wow'
p2422
I4
sS'electoral'
p2423
I10
sS'saakashvili'
p2424
I2
sS'slapped'
p2425
I1
sS'hollyweird'
p2426
I1
sS'fans'
p2427
I10
sS'won'
p2428
I18
sS'unknowable'
p2429
I1
sS'probably'
p2430
I1
sS'burned'
p2431
I1
sS'berserk'
p2432
I1
sS'available'
p2433
I1
sS'muslim'
p2434
I6
sS'creating'
p2435
I1
sS'missing'
p2436
I2
sS'pisses'
p2437
I1
sS'masterful'
p2438
I1
sS'attention'
p2439
I2
sS'31k'
p2440
I1
sS'blatant'
p2441
I1
sS'spray'
p2442
I1
sS'rapid'
p2443
I1
sS'autocrats'
p2444
I1
sS'opposition'
p2445
I1
sS'invisible'
p2446
I3
sS'pissed'
p2447
I2
sS'both'
p2448
I5
sS'prospects'
p2449
I1
sS'feeling'
p2450
I1
sS'last'
p2451
I8
sS'influential'
p2452
I2
sS'considerar'
p2453
I1
sS'foreign'
p2454
I11
sS'unfavorability'
p2455
I1
sS'les'
p2456
I2
sS'collection'
p2457
I1
sS'corrupt'
p2458
I2
sS'bond'
p2459
I1
sS'whole'
p2460
I2
sS'finds'
p2461
I5
sS'point'
p2462
I6
sS'reasons'
p2463
I4
sS'sweet'
p2464
I1
sS'loan'
p2465
I1
sS'sweep'
p2466
I1
sS'dances'
p2467
I1
sS'agents'
p2468
I1
sS'church'
p2469
I2
sS'bench'
p2470
I1
sS'mission'
p2471
I2
sS'hoaxers'
p2472
I1
sS'hannity'
p2473
I2
sS'tonya'
p2474
I1
sS'devil'
p2475
I1
sS'raise'
p2476
I1
sS'stamp'
p2477
I1
sS'create'
p2478
I1
sS'implosion'
p2479
I1
sS'political'
p2480
I14
sS'due'
p2481
I2
sS'strategy'
p2482
I4
sS'strengthen'
p2483
I1
sS'secret'
p2484
I11
sS'describes'
p2485
I1
sS'threaten'
p2486
I2
sS'brick'
p2487
I2
sS'dama'
p2488
I1
sS'meeting'
p2489
I7
sS'important'
p2490
I1
sS'treatment'
p2491
I1
sS'sanders'
p2492
I8
sS'jesuit'
p2493
I2
sS'referee'
p2494
I1
sS'gay'
p2495
I3
sS'unleash'
p2496
I2
sS'fire'
p2497
I2
sS'honorary'
p2498
I1
sS'gap'
p2499
I4
sS'anthony'
p2500
I3
sS'understand'
p2501
I1
sS'temperament'
p2502
I1
sS'prices'
p2503
I1
sS'insiders'
p2504
I3
sS'deport'
p2505
I2
sS'surveys'
p2506
I1
sS'evangelical'
p2507
I2
sS'gaslighting'
p2508
I1
sS'gender'
p2509
I1
sS'uncertain'
p2510
I1
sS'look'
p2511
I10
sS'solid'
p2512
I1
sS'bill'
p2513
I4
sS'tolerate'
p2514
I2
sS'pilger'
p2515
I2
sS'admire'
p2516
I1
sS'reopens'
p2517
I2
sS'while'
p2518
I6
sS'replaced'
p2519
I1
sS'behavior'
p2520
I1
sS'chant'
p2521
I1
sS'gala'
p2522
I2
sS'smacked'
p2523
I1
sS'voters'
p2524
I24
sS'backing'
p2525
I1
sS'violently'
p2526
I1
sS'hillarist'
p2527
I1
sS'vot'
p2528
I1
sS'awakening'
p2529
I1
sS'moralmatters'
p2530
I1
sS'screws'
p2531
I1
sS'ready'
p2532
I5
sS'zieht'
p2533
I1
sS'quit'
p2534
I1
sS'shirt'
p2535
I5
sS'alarm'
p2536
I1
sS'noose'
p2537
I1
sS'complicity'
p2538
I1
sS'aleppo'
p2539
I2
sS'grand'
p2540
I1
sS'9'
p2541
I5
sS'organization'
p2542
I1
sS'higher'
p2543
I1
sS'development'
p2544
I1
sS'used'
p2545
I3
sS'lawyers'
p2546
I4
sS'affairs'
p2547
I1
sS'mow'
p2548
I1
sS'island'
p2549
I2
sS'protesters'
p2550
I9
sS'moment'
p2551
I3
sS'000'
p2552
I5
sS'uses'
p2553
I6
sS'decency'
p2554
I1
sS'revitalization'
p2555
I1
sS'brussels'
p2556
I1
sS'recent'
p2557
I1
sS'dark'
p2558
I1
sS'attaquer'
p2559
I1
sS'mercy'
p2560
I1
sS'evasion'
p2561
I1
sS'surrogate'
p2562
I2
sS'anxious'
p2563
I1
sS'limbaugh'
p2564
I1
sS'chickens'
p2565
I1
sS'increases'
p2566
I1
sS'analysis'
p2567
I1
sS'picks'
p2568
I1
sS'person'
p2569
I3
sS'hags'
p2570
I1
sS'y'
p2571
I1
sS'traffic'
p2572
I1
sS'spend'
p2573
I1
sS'cave'
p2574
I1
sS'collectivism'
p2575
I1
sS'settlements'
p2576
I2
sS'austyn'
p2577
I1
sS'gabbard'
p2578
I1
sS'repealing'
p2579
I1
sS'questions'
p2580
I1
sS'world'
p2581
I37
sS'retired'
p2582
I1
sS'prince'
p2583
I2
sS'letting'
p2584
I2
sS'cut'
p2585
I2
sS'donaldbreaux'
p2586
I1
sS'rebecca'
p2587
I1
sS'workers'
p2588
I3
sS'nikki'
p2589
I1
sS'throats'
p2590
I1
sS'barack'
p2591
I1
sS'shouting'
p2592
I1
sS'cub'
p2593
I1
sS'crying'
p2594
I2
sS'infowarriors'
p2595
I1
sS'ballots'
p2596
I1
sS'guarantees'
p2597
I1
sS'excited'
p2598
I1
sS'hater'
p2599
I2
sS'freefall'
p2600
I2
sS'complaint'
p2601
I1
sS'mujer'
p2602
I1
sS'stein'
p2603
I2
sS'demands'
p2604
I1
sS'big'
p2605
I8
sS'bid'
p2606
I2
sS'laughed'
p2607
I1
sS'game'
p2608
I2
sS'boost'
p2609
I1
sS'biz'
p2610
I1
sS'private'
p2611
I1
sS'narcissist'
p2612
I2
sS'bit'
p2613
I1
sS'd'
p2614
I11
sS'confront'
p2615
I1
sS'message'
p2616
I5
sS'kremlin'
p2617
I1
sS'ignore'
p2618
I2
sS'almanach'
p2619
I1
sS'provoking'
p2620
I1
sS'popular'
p2621
I3
sS'weiner'
p2622
I4
sS'foolish'
p2623
I1
sS'disorder'
p2624
I2
sS'names'
p2625
I2
sS'partying'
p2626
I2
sS'senate'
p2627
I2
sS'spring'
p2628
I1
sS'some'
p2629
I3
sS'back'
p2630
I12
sS'empi'
p2631
I1
sS'urgent'
p2632
I1
sS'economic'
p2633
I6
sS'clown'
p2634
I1
sS'scandal'
p2635
I1
sS'whatve'
p2636
I1
sS'ourselves'
p2637
I1
sS'savage'
p2638
I2
sS'qatar'
p2639
I1
sS'tools'
p2640
I3
sS'decision'
p2641
I1
sS'waterboard'
p2642
I1
sS'per'
p2643
I1
sS'religion'
p2644
I1
sS'lara'
p2645
I1
sS'bogus'
p2646
I2
sS'slash'
p2647
I1
sS'chumps'
p2648
I1
sS'prof'
p2649
I1
sS'dating'
p2650
I1
sS'commentator'
p2651
I1
sS'forgets'
p2652
I1
sS'laughing'
p2653
I1
sS'be'
p2654
I53
sS'run'
p2655
I5
sS'jumps'
p2656
I2
sS'veritas'
p2657
I1
sS'306'
p2658
I2
sS'totalement'
p2659
I1
sS'adminstration'
p2660
I1
sS'chanting'
p2661
I1
sS'bs'
p2662
I1
sS'refuses'
p2663
I3
sS'chairman'
p2664
I1
sS'editors'
p2665
I1
sS'by'
p2666
I84
sS'russell'
p2667
I1
sS'pipeline'
p2668
I1
sS'hidden'
p2669
I2
sS'certificate'
p2670
I1
sS'deserved'
p2671
I2
sS'chomsky'
p2672
I2
sS'truck'
p2673
I3
sS'assasination'
p2674
I1
sS'deserves'
p2675
I2
sS'slams'
p2676
I3
sS'beans'
p2677
I1
sS'disrobes'
p2678
I1
sS'alert'
p2679
I3
sS'together'
p2680
I1
sS'congressman'
p2681
I9
sS'hatred'
p2682
I2
sS'podesta'
p2683
I2
sS'countercurrents'
p2684
I1
sS'block'
p2685
I6
sS'seeing'
p2686
I2
sS'jimmy'
p2687
I1
sS'clinton'
p2688
I132
sS'gisele'
p2689
I1
sS'cbs4'
p2690
I1
sS'terrorists'
p2691
I1
sS'beatdown'
p2692
I2
sS'nsa'
p2693
I1
sS'into'
p2694
I7
sS'nonsense'
p2695
I1
sS'durchsetzen'
p2696
I1
sS'controversies'
p2697
I1
sS'steven'
p2698
I1
sS'pace'
p2699
I1
sS'sports'
p2700
I1
sS'newsnight'
p2701
I1
sS'jews'
p2702
I2
sS'notion'
p2703
I1
sS'vorbild'
p2704
I1
sS'spending'
p2705
I2
sS'doll'
p2706
I1
sS'question'
p2707
I4
sS'msm'
p2708
I1
sS'long'
p2709
I2
sS'feu'
p2710
I1
sS'addicting'
p2711
I8
sS'rowe'
p2712
I1
sS'sich'
p2713
I1
sS'bored'
p2714
I1
sS'belonged'
p2715
I1
sS'opens'
p2716
I3
sS'opposed'
p2717
I1
sS'files'
p2718
I1
sS'mountains'
p2719
I1
sS'himself'
p2720
I5
sS'talked'
p2721
I1
sS'jewish'
p2722
I3
sS'poster'
p2723
I1
sS'murphy'
p2724
I1
sS'immigration'
p2725
I3
sS'oversight'
p2726
I1
sS'upend'
p2727
I1
sS'link'
p2728
I4
sS'repeatedly'
p2729
I2
sS'hopes'
p2730
I2
sS'line'
p2731
I1
sS'brokenhearted'
p2732
I1
sS'collapses'
p2733
I1
sS'posted'
p2734
I1
sS'info'
p2735
I11
sS'hair'
p2736
I1
sS'patriot'
p2737
I1
sS'ut'
p2738
I1
sS'lament'
p2739
I1
sS'up'
p2740
I27
sS'us'
p2741
I39
sS'stalking'
p2742
I1
sS'international'
p2743
I1
sS'tano'
p2744
I1
sS'un'
p2745
I6
sS'customers'
p2746
I1
sS'yellen'
p2747
I1
sS'uk'
p2748
I2
sS'z'
p2749
I1
sS'similar'
p2750
I1
sS'called'
p2751
I6
sS'devastating'
p2752
I3
sS'ordered'
p2753
I3
sS'gunpoint'
p2754
I2
sS'haunt'
p2755
I1
sS'reopening'
p2756
I3
sS'divisive'
p2757
I3
sS'warning'
p2758
I3
sS'semite'
p2759
I1
sS'rally'
p2760
I27
sS'graham'
p2761
I2
sS'independents'
p2762
I3
sS'thugs'
p2763
I1
sS'intrepid'
p2764
I1
sS'nostradamus'
p2765
I2
sS'makati'
p2766
I1
sS'peace'
p2767
I7
sS'politicians'
p2768
I2
sS'actors'
p2769
I1
sS'income'
p2770
I3
sS'department'
p2771
I1
sS'assassinate'
p2772
I2
sS'mock'
p2773
I2
sS'cultivating'
p2774
I1
sS'smiles'
p2775
I1
sS'deadbeating'
p2776
I1
sS'intensifies'
p2777
I1
sS'viral'
p2778
I3
sS'jalandoni'
p2779
I1
sS'radikale'
p2780
I1
sS'helping'
p2781
I2
sS'intensified'
p2782
I1
sS'meaning'
p2783
I1
sS'evan'
p2784
I1
sS'suppression'
p2785
I8
sS'ruthlessly'
p2786
I1
sS'prepares'
p2787
I3
sS'song'
p2788
I3
sS'ago'
p2789
I5
sS'suffers'
p2790
I1
sS'e'
p2791
I3
sS'vice'
p2792
I2
sS'age'
p2793
I4
sS'youtube'
p2794
I1
sS'bankers'
p2795
I2
sS'dragged'
p2796
I1
sS'feud'
p2797
I1
sS'nasa'
p2798
I1
sS'karma'
p2799
I1
sS'narrative'
p2800
I3
sS'dismal'
p2801
I1
sS'2008'
p2802
I3
sS'humiliates'
p2803
I1
sS'consortiumnews'
p2804
I1
sS'having'
p2805
I1
sS'once'
p2806
I3
sS'pervert'
p2807
I1
sS'jason'
p2808
I1
sS'restraining'
p2809
I1
sS'effigy'
p2810
I1
sS'rants'
p2811
I2
sS'results'
p2812
I6
sS'steve'
p2813
I3
sS'vanga'
p2814
I1
sS'gang'
p2815
I1
sS'mcmullin'
p2816
I1
sS'go'
p2817
I13
sS'flashback'
p2818
I1
sS'moon'
p2819
I1
sS'contributions'
p2820
I1
sS'kate'
p2821
I1
sS'issues'
p2822
I3
sS'birthplace'
p2823
I1
sS'stunned'
p2824
I2
sS'concerned'
p2825
I1
sS'mosque'
p2826
I1
sS'young'
p2827
I3
sS'send'
p2828
I2
sS'nose'
p2829
I1
sS'helps'
p2830
I1
sS'maryland'
p2831
I3
sS'hints'
p2832
I1
sS'dramatically'
p2833
I2
sS'sent'
p2834
I1
sS'pay'
p2835
I4
sS'implodes'
p2836
I1
sS'saying'
p2837
I3
sS'mainstream'
p2838
I3
sS'listed'
p2839
I1
sS'continues'
p2840
I4
sS'reopened'
p2841
I2
sS'tulsi'
p2842
I1
sS'manipulated'
p2843
I1
sS'facebook'
p2844
I3
sS'llama'
p2845
I1
sS'bosses'
p2846
I1
sS'telling'
p2847
I1
sS'assad'
p2848
I1
sS'drinking'
p2849
I1
sS'achievements'
p2850
I1
sS'entire'
p2851
I1
sS'alec'
p2852
I1
sS'positions'
p2853
I2
sS'button'
p2854
I1
sS'shock'
p2855
I9
sS'michael'
p2856
I10
sS'ryan'
p2857
I2
sS'try'
p2858
I3
sS'brutal'
p2859
I2
sS'race'
p2860
I4
sS'epstein'
p2861
I1
sS'polling'
p2862
I6
sS'populism'
p2863
I3
sS'mobilize'
p2864
I2
sS'havent'
p2865
I1
sS'enforce'
p2866
I1
sS'bernie'
p2867
I5
sS'ibd'
p2868
I1
sS'playmate'
p2869
I1
sS'pres'
p2870
I1
sS'video'
p2871
I26
sS'anoymous'
p2872
I1
sS'lego'
p2873
I1
sS'ardent'
p2874
I1
sS'zu'
p2875
I1
sS'encadenen'
p2876
I1
sS'depression'
p2877
I1
sS'staffers'
p2878
I1
sS'plays'
p2879
I1
sS'hissy'
p2880
I2
sS'chicago'
p2881
I1
sS'giving'
p2882
I1
sS'saw'
p2883
I1
sS'find'
p2884
I2
sS'access'
p2885
I1
sS'waiting'
p2886
I1
sS'indian'
p2887
I1
sS'pleading'
p2888
I1
sS'capital'
p2889
I1
sS'charade'
p2890
I1
sS'slovenia'
p2891
I1
sS'floated'
p2892
I1
sS'bazinga'
p2893
I1
sS'exchange'
p2894
I2
sS'pushing'
p2895
I1
sS'punch'
p2896
I2
sS'fla'
p2897
I1
sS'intercept'
p2898
I2
sS'let'
p2899
I3
sS'slut'
p2900
I1
sS'others'
p2901
I1
sS'haters'
p2902
I2
sS'kidnapped'
p2903
I1
sS'extreme'
p2904
I2
sS'ukraine'
p2905
I3
sS'great'
p2906
I5
sS'engage'
p2907
I1
sS'kissinger'
p2908
I3
sS'32'
p2909
I1
sS'30'
p2910
I2
sS'37'
p2911
I1
sS'35'
p2912
I1
sS'34'
p2913
I1
sS'erster'
p2914
I1
sS'applauds'
p2915
I1
sS'henningsen'
p2916
I1
sS'defeat'
p2917
I2
sS'existent'
p2918
I1
sS'residents'
p2919
I1
sS'makes'
p2920
I9
sS'bare'
p2921
I1
sS'chains'
p2922
I1
sS'claim'
p2923
I3
sS'win'
p2924
I50
sS'volk'
p2925
I1
sS'limo'
p2926
I1
sS'motor'
p2927
I1
sS'dumbest'
p2928
I2
sS'apply'
p2929
I1
sS'redo'
p2930
I1
sS'presidente'
p2931
I1
sS'froh'
p2932
I1
sS'use'
p2933
I1
sS'from'
p2934
I49
sS'usa'
p2935
I5
sS'remains'
p2936
I1
sS'illegal'
p2937
I5
sS'next'
p2938
I9
sS'few'
p2939
I3
sS'randy'
p2940
I1
sS'alrededor'
p2941
I1
sS'timetable'
p2942
I1
sS'congratulates'
p2943
I5
sS'hiding'
p2944
I1
sS'dreams'
p2945
I1
sS'construir'
p2946
I1
sS'baba'
p2947
I1
sS'journalists'
p2948
I1
sS'started'
p2949
I1
sS'becomes'
p2950
I1
sS'freedom'
p2951
I1
sS'sister'
p2952
I1
sS'wildly'
p2953
I1
sS'missile'
p2954
I2
sS'train'
p2955
I1
sS'israelis'
p2956
I1
sS'ashamed'
p2957
I2
sS'recount'
p2958
I1
sS'baby'
p2959
I1
sS'antichrist'
p2960
I1
sS'iii'
p2961
I4
sS'appointed'
p2962
I1
sS'women'
p2963
I9
sS'escaped'
p2964
I1
sS'account'
p2965
I1
sS'fooling'
p2966
I1
sS'f'
p2967
I10
sS'this'
p2968
I34
sS'stations'
p2969
I1
sS'pour'
p2970
I3
sS'cuomo'
p2971
I1
sS'of'
p2972
I212
sS'meet'
p2973
I6
sS'closing'
p2974
I1
sS'drops'
p2975
I3
sS'didnt'
p2976
I10
sS'proof'
p2977
I5
sS'control'
p2978
I4
sS'distractions'
p2979
I1
sS'rallies'
p2980
I3
sS'lock'
p2981
I2
sS'slim'
p2982
I1
sS'tax'
p2983
I1
sS'high'
p2984
I5
sS'pulling'
p2985
I1
sS'something'
p2986
I3
sS'blvd'
p2987
I2
sS'recklessly'
p2988
I1
sS'voice'
p2989
I3
sS'trumpet'
p2990
I1
sS'molodets'
p2991
I1
sS'rape'
p2992
I4
sS'gains'
p2993
I2
sS'united'
p2994
I5
sS'outsiders'
p2995
I1
sS'democracy'
p2996
I1
sS'guru'
p2997
I1
sS'afd'
p2998
I1
sS'stole'
p2999
I1
sS'six'
p3000
I3
sS'poetry'
p3001
I1
sS'brian'
p3002
I1
sS'surely'
p3003
I1
sS'sie'
p3004
I1
sS'instead'
p3005
I3
sS'native'
p3006
I1
sS'panic'
p3007
I5
sS'stock'
p3008
I2
sS'profile'
p3009
I1
sS'blocks'
p3010
I1
sS'pockets'
p3011
I1
sS'watch'
p3012
I34
sS'tied'
p3013
I2
sS'ronald'
p3014
I1
sS'pigs'
p3015
I1
sS'whistles'
p3016
I2
sS'ties'
p3017
I6
sS'whistle'
p3018
I1
sS'light'
p3019
I2
sS'counter'
p3020
I1
sS'reminders'
p3021
I1
sS'robot'
p3022
I1
sS'primera'
p3023
I1
sS'chief'
p3024
I10
sS'advocates'
p3025
I2
sS'honestly'
p3026
I1
sS'allow'
p3027
I2
sS'healthcare'
p3028
I1
sS'lakshmima'
p3029
I1
sS'counted'
p3030
I1
sS'slaps'
p3031
I1
sS'holds'
p3032
I1
sS'sanctioned'
p3033
I1
sS'geopolitics'
p3034
I4
sS'move'
p3035
I9
sS'quietly'
p3036
I1
sS'ivana'
p3037
I2
sS'looks'
p3038
I2
sS'shreds'
p3039
I1
sS'electors'
p3040
I3
sS'badges'
p3041
I1
sS'perfect'
p3042
I5
sS'write'
p3043
I1
sS'le'
p3044
I11
sS'la'
p3045
I9
sS'chosen'
p3046
I2
sS'guerrilla'
p3047
I1
sS'backers'
p3048
I2
sS'victoire'
p3049
I1
sS'winning'
p3050
I9
sS'lu'
p3051
I1
sS'restrain'
p3052
I1
sS'2018'
p3053
I1
sS'stalled'
p3054
I1
sS'reilly'
p3055
I1
sS'2015'
p3056
I1
sS'2016'
p3057
I8
sS'crowds'
p3058
I3
sS'sjws'
p3059
I1
sS'elites'
p3060
I6
sS'2012'
p3061
I1
sS'dad'
p3062
I1
sS'violating'
p3063
I1
sS'crash'
p3064
I2
sS'dismissing'
p3065
I1
sS'later'
p3066
I1
sS'orthodox'
p3067
I1
sS'dan'
p3068
I1
sS'kikes'
p3069
I1
sS'warmongers'
p3070
I1
sS'mention'
p3071
I1
sS'cutting'
p3072
I1
sS'ferguson'
p3073
I2
sS'mandate'
p3074
I2
sS'front'
p3075
I2
sS'republican'
p3076
I9
sS'flee'
p3077
I1
sS'day'
p3078
I17
sS'presidential'
p3079
I10
sS'landings'
p3080
I1
sS'autistic'
p3081
I1
sS'warned'
p3082
I2
sS'university'
p3083
I2
sS'covering'
p3084
I2
sS'identified'
p3085
I2
sS'begs'
p3086
I3
sS'vicu'
p3087
I1
sS'doesnt'
p3088
I2
sS'rockets'
p3089
I1
sS'trap'
p3090
I2
sS'truth'
p3091
I3
sS'virulent'
p3092
I1
sS'shaking'
p3093
I4
sS'accusers'
p3094
I3
sS'salsa'
p3095
I1
sS'infiltrators'
p3096
I1
sS'barnett'
p3097
I1
sS'supermodel'
p3098
I1
sS'our'
p3099
I1
sS'sexual'
p3100
I6
sS'87'
p3101
I1
sS'special'
p3102
I4
sS'out'
p3103
I36
sS'semen'
p3104
I1
sS'crashes'
p3105
I1
sS'kids'
p3106
I2
sS'rigging'
p3107
I2
sS'announces'
p3108
I7
sS'rep'
p3109
I1
sS'radical'
p3110
I1
sS'chaos'
p3111
I7
sS'review'
p3112
I1
sS'escalate'
p3113
I1
sS'activist'
p3114
I1
sS'arkansas'
p3115
I1
sS'hilarious'
p3116
I4
sS'burka'
p3117
I1
sS'hypnotist'
p3118
I1
sS'supports'
p3119
I3
sS'announced'
p3120
I2
sS'statist'
p3121
I1
sS'disclose'
p3122
I1
sS'shut'
p3123
I1
sS'experiment'
p3124
I1
sS'yawns'
p3125
I1
sS'payroll'
p3126
I1
sS'embassy'
p3127
I3
sS'ban'
p3128
I1
sS'completely'
p3129
I1
sS'jill'
p3130
I2
sS'que'
p3131
I4
sS'york'
p3132
I5
sS'advisor'
p3133
I2
sS'rejoice'
p3134
I2
sS'philip'
p3135
I1
sS'scary'
p3136
I2
sS'yard'
p3137
I1
sS'prepare'
p3138
I2
sS'spill'
p3139
I1
sS'concerns'
p3140
I1
sS'route'
p3141
I1
sS'florida'
p3142
I12
sS'keep'
p3143
I2
sS'conversation'
p3144
I1
sS'184'
p3145
I4
sS'adrian'
p3146
I1
sS'repeats'
p3147
I1
sS'scare'
p3148
I2
sS'berlusconi'
p3149
I1
sS'powerful'
p3150
I2
sS'reaches'
p3151
I2
sS'philadelphia'
p3152
I1
sS'removed'
p3153
I1
sS'puppet'
p3154
I2
sS'khans'
p3155
I1
sS'such'
p3156
I2
sS'stump'
p3157
I1
sS'blows'
p3158
I2
sS'vandal'
p3159
I1
sS'disaster'
p3160
I1
sS'los'
p3161
I1
sS'nomination'
p3162
I1
sS'vulgar'
p3163
I1
sS'system'
p3164
I6
sS'relations'
p3165
I7
sS'their'
p3166
I18
sS'attack'
p3167
I7
sS'durably'
p3168
I1
sS'perfectly'
p3169
I1
sS'final'
p3170
I4
sS'boil'
p3171
I1
sS'interests'
p3172
I2
sS'vid'
p3173
I1
sS'shell'
p3174
I1
sS'doomed'
p3175
I1
sS'nobody'
p3176
I4
sS'depressing'
p3177
I2
sS'aryan'
p3178
I1
sS'deniro'
p3179
I1
sS'july'
p3180
I1
sS'elite'
p3181
I3
sS'loved'
p3182
I1
sS'bei'
p3183
I1
sS'ben'
p3184
I1
sS'cartoonist'
p3185
I1
sS'bee'
p3186
I2
sS'probe'
p3187
I3
sS'psalm'
p3188
I1
sS'loves'
p3189
I2
sS'maybe'
p3190
I1
sS'gays'
p3191
I3
sS'sec'
p3192
I1
sS'provoke'
p3193
I1
sS'oligarch'
p3194
I1
sS'rips'
p3195
I1
sS'false'
p3196
I1
sS'clip'
p3197
I1
sS'julian'
p3198
I4
sS'lin'
p3199
I1
sS'fail'
p3200
I3
sS'defending'
p3201
I2
sS'have'
p3202
I27
sS'need'
p3203
I8
sS'apparently'
p3204
I2
sS'whines'
p3205
I1
sS'microphone'
p3206
I1
sS'demolishes'
p3207
I1
sS'skittles'
p3208
I1
sS'marais'
p3209
I1
sS'able'
p3210
I2
sS'populist'
p3211
I1
sS'bloodbath'
p3212
I1
sS'chalkings'
p3213
I1
sS'skeptics'
p3214
I1
sS'magafeed'
p3215
I3
sS'ministerien'
p3216
I1
sS'so'
p3217
I11
sS'latino'
p3218
I1
sS'nytimes'
p3219
I1
sS'secrecy'
p3220
I1
sS'deploy'
p3221
I1
sS'bookooball'
p3222
I1
sS'who'
p3223
I33
sS'naranja'
p3224
I1
sS'pausing'
p3225
I1
sS'sc'
p3226
I1
sS'visa'
p3227
I1
sS'demise'
p3228
I1
sS'awe'
p3229
I1
sS'mavs'
p3230
I1
sS'why'
p3231
I37
sS'deny'
p3232
I2
sS'gma'
p3233
I1
sS'spontaneou'
p3234
I1
sS'consequences'
p3235
I2
sS'absolutely'
p3236
I2
sS'ensues'
p3237
I1
sS'upset'
p3238
I2
sS'thanksgiving'
p3239
I2
sS'face'
p3240
I9
sS'cloaked'
p3241
I1
sS'se'
p3242
I2
sS'abedin'
p3243
I1
sS'businessman'
p3244
I1
sS'fact'
p3245
I4
sS'goals'
p3246
I3
sS'affair'
p3247
I1
sS'atmosphere'
p3248
I1
sS'latinos'
p3249
I1
sS'apace'
p3250
I1
sS'pussy'
p3251
I2
sS'spanking'
p3252
I1
sS'bring'
p3253
I2
sS'planning'
p3254
I4
sS'traitor'
p3255
I1
sS'democrats'
p3256
I11
sS'rebuke'
p3257
I1
sS'fear'
p3258
I4
sS'darkest'
p3259
I1
sS'economist'
p3260
I1
sS'supporter'
p3261
I33
sS'staff'
p3262
I2
sS'nftig'
p3263
I1
sS'wear'
p3264
I1
sS'knowledge'
p3265
I8
sS'sheriff'
p3266
I2
sS'jay'
p3267
I1
sS'sparks'
p3268
I1
sS'jaw'
p3269
I1
sS'winner'
p3270
I4
sS'hopeful'
p3271
I1
sS'fumbles'
p3272
I1
sS'should'
p3273
I15
sS'tape'
p3274
I4
sS'hope'
p3275
I3
sS'equilibrium'
p3276
I1
sS'meant'
p3277
I1
sS'prosecute'
p3278
I4
sS'cube'
p3279
I1
sS'means'
p3280
I3
sS'beat'
p3281
I1
sS'michigan'
p3282
I6
sS'props'
p3283
I1
sS'likely'
p3284
I1
sS'fraud'
p3285
I12
sS'sues'
p3286
I1
sS'125'
p3287
I1
sS'words'
p3288
I3
sS'tossed'
p3289
I1
sS'qu'
p3290
I1
sS'organ'
p3291
I1
sS'course'
p3292
I1
sS'married'
p3293
I1
sS'taxes'
p3294
I4
sS'calling'
p3295
I5
sS'reid'
p3296
I4
sS'she'
p3297
I10
sS'protesting'
p3298
I1
sS'ohio'
p3299
I4
sS'grab'
p3300
I1
sS'view'
p3301
I2
sS'spotted'
p3302
I2
sS'shapiro'
p3303
I1
sS'j'
p3304
I5
sS'accuses'
p3305
I7
sS'national'
p3306
I8
sS'immigrant'
p3307
I1
sS'officials'
p3308
I6
sS'parnell'
p3309
I1
sS'desperate'
p3310
I3
sS'packed'
p3311
I1
sS'awaits'
p3312
I1
sS'danger'
p3313
I1
sS'closes'
p3314
I2
sS'wird'
p3315
I1
sS'wire'
p3316
I12
sS'televised'
p3317
I1
sS'turks'
p3318
I1
sS'extradite'
p3319
I1
sS'nuclear'
p3320
I7
sS'nightmare'
p3321
I5
sS'legalize'
p3322
I1
sS'mexicano'
p3323
I1
sS'favor'
p3324
I5
sS'state'
p3325
I6
sS'closed'
p3326
I2
sS'horrible'
p3327
I3
sS'lui'
p3328
I1
sS'email'
p3329
I8
sS'defacing'
p3330
I1
sS'classless'
p3331
I1
sS'explosive'
p3332
I2
sS'janet'
p3333
I1
sS'emitted'
p3334
I1
sS'deliver'
p3335
I2
sS'scolds'
p3336
I1
sS'kicking'
p3337
I1
sS'job'
p3338
I4
sS'takeover'
p3339
I1
sS'joe'
p3340
I3
sS'key'
p3341
I3
sS'group'
p3342
I2
sS'maga'
p3343
I2
sS'blitzer'
p3344
I1
sS'lawsuit'
p3345
I5
sS'jon'
p3346
I1
sS'trumpf'
p3347
I1
sS'hits'
p3348
I3
sS'career'
p3349
I1
sS'pimping'
p3350
I1
sS'invited'
p3351
I1
sS'fitts'
p3352
I1
sS'minds'
p3353
I1
sS'kosher'
p3354
I2
sS'april'
p3355
I1
sS'busted'
p3356
I8
sS'figures'
p3357
I1
sS'trumps'
p3358
I4
sS'candidates'
p3359
I2
sS'camera'
p3360
I1
sS'll'
p3361
I6
sS'otherwise'
p3362
I1
sS'comment'
p3363
I32
sS'adjusted'
p3364
I1
sS'wtf'
p3365
I1
sS'ambushed'
p3366
I1
sS'wall'
p3367
I11
sS'malcolm'
p3368
I1
sS'yuuuge'
p3369
I1
sS'walk'
p3370
I14
sS'betrayed'
p3371
I1
sS'turncoats'
p3372
I1
sS'respect'
p3373
I1
sS'aviv'
p3374
I1
sS'pin'
p3375
I1
sS'plagiarized'
p3376
I1
sS'discrimination'
p3377
I1
sS'bbc'
p3378
I1
sS'responds'
p3379
I2
sS'liberals'
p3380
I6
sS'willing'
p3381
I1
sS'nullify'
p3382
I1
sS'invigorates'
p3383
I1
sS'poet'
p3384
I1
sS'freak'
p3385
I1
sS'improve'
p3386
I2
sS'annonce'
p3387
I1
sS'sart'
p3388
I1
sS'ghettos'
p3389
I1
sS'mike'
p3390
I4
sS'controlled'
p3391
I1
sS'finishes'
p3392
I1
sS'sickest'
p3393
I1
sS'received'
p3394
I1
sS'painted'
p3395
I2
sS'c'
p3396
I1
sS'netanyahu'
p3397
I3
sS'topless'
p3398
I1
sS'tweets'
p3399
I11
sS'kicks'
p3400
I5
sS'smoking'
p3401
I1
sS'an'
p3402
I22
sS'despite'
p3403
I1
sS'shameless'
p3404
I2
sS'volunteer'
p3405
I1
sS'multi'
p3406
I1
sS'criminal'
p3407
I1
sS'cbs'
p3408
I1
sS'intimidate'
p3409
I3
sS'decades'
p3410
I2
sS'runway'
p3411
I2
sS'harder'
p3412
I1
sS'as'
p3413
I69
sS'irate'
p3414
I1
sS'promotes'
p3415
I2
sS'will'
p3416
I96
sS'stunning'
p3417
I4
sS'texas'
p3418
I13
sS'rigged'
p3419
I16
sS'instantly'
p3420
I1
sS'supply'
p3421
I1
sS'ringing'
p3422
I1
sS'vindicated'
p3423
I1
sS'almost'
p3424
I1
sS'breitbartistan'
p3425
I1
sS'morgen'
p3426
I1
sS'vp'
p3427
I4
sS'draining'
p3428
I2
sS'vs'
p3429
I6
sS'dems'
p3430
I3
sS'snuck'
p3431
I1
sS'thug'
p3432
I6
sS'minorities'
p3433
I2
sS'terrorist'
p3434
I4
sS'trumplon'
p3435
I1
sS'perhaps'
p3436
I1
sS'divergences'
p3437
I1
sS'views'
p3438
I1
sS'administration'
p3439
I4
sS'autism'
p3440
I1
sS'member'
p3441
I1
sS'chants'
p3442
I3
sS'unity'
p3443
I3
sS'strange'
p3444
I2
sS'speaker'
p3445
I1
sS'misogynist'
p3446
I2
sS'party'
p3447
I14
sS'gets'
p3448
I13
sS'paula'
p3449
I1
sS'tighten'
p3450
I1
sS'ball'
p3451
I1
sS'slave'
p3452
I2
sS'emotionally'
p3453
I1
sS'samantha'
p3454
I2
sS'faces'
p3455
I2
sS'effect'
p3456
I2
sS'phd'
p3457
I1
sS'student'
p3458
I2
sS'fierce'
p3459
I1
sS'giuliani'
p3460
I3
sS'judgment'
p3461
I1
sS'scholars'
p3462
I1
sS'warming'
p3463
I1
sS'destruction'
p3464
I2
sS'gutter'
p3465
I1
sS'off'
p3466
I14
sS'i'
p3467
I37
sS'colour'
p3468
I1
sS'contest'
p3469
I2
sS'well'
p3470
I2
sS'banging'
p3471
I1
sS'fighting'
p3472
I5
sS'messiah'
p3473
I2
sS'thought'
p3474
I4
sS'sets'
p3475
I2
sS'audio'
p3476
I3
sS'latest'
p3477
I4
sS'restore'
p3478
I2
sS'kkk'
p3479
I3
sS'less'
p3480
I2
sS'moments'
p3481
I1
sS'percent'
p3482
I2
sS'executive'
p3483
I2
sS'domestic'
p3484
I1
sS'dose'
p3485
I1
sS'sources'
p3486
I1
sS'mistakes'
p3487
I1
sS'fishing'
p3488
I1
sS'predicts'
p3489
I6
sS'dakota'
p3490
I1
sS'protecting'
p3491
I4
sS'paul'
p3492
I8
sS'toutes'
p3493
I1
sS'mysterious'
p3494
I1
sS'disturbance'
p3495
I1
sS'wei'
p3496
I1
sS'jeff'
p3497
I1
sS'sky'
p3498
I1
sS'morbidly'
p3499
I1
sS'mathematically'
p3500
I1
sS'arrest'
p3501
I2
sS'add'
p3502
I1
sS'other'
p3503
I3
sS'nato'
p3504
I4
sS'necks'
p3505
I1
sS'minorit'
p3506
I1
sS'scoundrel'
p3507
I1
sS'unprecedented'
p3508
I1
sS'kick'
p3509
I1
sS'details'
p3510
I3
sS'tests'
p3511
I2
sS'rednecks'
p3512
I1
sS'government'
p3513
I8
sS'twats'
p3514
I1
sS'utah'
p3515
I2
sS'crushed'
p3516
I2
sS'livid'
p3517
I1
sS'cruz'
p3518
I1
sS'historic'
p3519
I4
sS'five'
p3520
I3
sS'know'
p3521
I15
sS'press'
p3522
I8
sS'immediately'
p3523
I2
sS'crushes'
p3524
I1
sS'slattery'
p3525
I3
sS'name'
p3526
I1
sS'loss'
p3527
I4
sS'racists'
p3528
I1
sS'spics'
p3529
I1
sS'like'
p3530
I15
sS'success'
p3531
I1
sS'admitted'
p3532
I2
sS'loses'
p3533
I12
sS'sagen'
p3534
I1
sS'journalist'
p3535
I3
sS'lose'
p3536
I7
sS'become'
p3537
I1
sS'works'
p3538
I1
sS'refugees'
p3539
I1
sS'page'
p3540
I1
sS'amendment'
p3541
I1
sS'gaining'
p3542
I1
sS'because'
p3543
I17
sS'muro'
p3544
I1
sS'twitter'
p3545
I8
sS'searching'
p3546
I1
sS'alive'
p3547
I1
sS'hush'
p3548
I1
sS'daylight'
p3549
I1
sS'growth'
p3550
I1
sS'home'
p3551
I4
sS'ballot'
p3552
I1
sS'march'
p3553
I1
sS'happens'
p3554
I1
sS'lead'
p3555
I15
sS'literally'
p3556
I3
sS'avoid'
p3557
I1
sS'lean'
p3558
I1
sS'does'
p3559
I5
sS'denzel'
p3560
I1
sS'avoir'
p3561
I2
sS'murdoch'
p3562
I1
sS'ripped'
p3563
I1
sS'blowing'
p3564
I2
sS'schedule'
p3565
I1
sS'mitt'
p3566
I2
sS'melts'
p3567
I1
sS'expansion'
p3568
I1
sS'paper'
p3569
I2
sS'waits'
p3570
I1
sS'host'
p3571
I5
sS'balkans'
p3572
I1
sS'worthy'
p3573
I2
sS'stay'
p3574
I1
sS'refuge'
p3575
I1
sS'stage'
p3576
I6
sS'waving'
p3577
I1
sS'about'
p3578
I45
sS'getting'
p3579
I5
sS'universe'
p3580
I2
sS'spilled'
p3581
I1
sS'tomi'
p3582
I1
sS'saker'
p3583
I1
sS'urges'
p3584
I1
sS'concession'
p3585
I1
sS'emperor'
p3586
I1
sS'own'
p3587
I6
sS'libertarians'
p3588
I1
sS'conway'
p3589
I2
sS'primal'
p3590
I2
sS'booed'
p3591
I1
sS'washington'
p3592
I4
sS'domain'
p3593
I1
sS'billions'
p3594
I1
sS'sachs'
p3595
I1
sS'fundraiser'
p3596
I1
sS'guard'
p3597
I1
sS'presstitute'
p3598
I1
sS'promise'
p3599
I1
sS'tiny'
p3600
I1
sS'female'
p3601
I5
sS'registration'
p3602
I1
sS'couldnt'
p3603
I2
sS'unabated'
p3604
I1
sS'brilliantly'
p3605
I2
sS'postal'
p3606
I1
sS'nuke'
p3607
I1
sS'van'
p3608
I1
sS'rushed'
p3609
I3
sS'transfer'
p3610
I1
sS'housing'
p3611
I1
sS'spiral'
p3612
I1
sS'spots'
p3613
I1
sS'kidding'
p3614
I1
sS'rushes'
p3615
I1
sS'katasonov'
p3616
I1
sS'much'
p3617
I2
sS'biggest'
p3618
I4
sS'hawkishness'
p3619
I1
sS'hotspots'
p3620
I1
sS'building'
p3621
I2
sS'north'
p3622
I2
sS'revalue'
p3623
I1
sS'triggered'
p3624
I2
sS'funds'
p3625
I1
sS'brand'
p3626
I2
sS'but'
p3627
I12
sS'neutral'
p3628
I1
sS'gain'
p3629
I1
sS'nevertrump'
p3630
I1
sS'ha'
p3631
I2
sS'he'
p3632
I78
sS'embargo'
p3633
I1
sS'scream'
p3634
I1
sS'made'
p3635
I4
sS'tactics'
p3636
I2
sS'places'
p3637
I2
sS'oligarchy'
p3638
I5
sS'whether'
p3639
I4
sS'dangerous'
p3640
I5
sS'official'
p3641
I7
sS'dml'
p3642
I1
sS'flip'
p3643
I1
sS'responsabilidad'
p3644
I1
sS'record'
p3645
I6
sS'ruling'
p3646
I1
sS'offstage'
p3647
I1
sS'cake'
p3648
I1
sS'problem'
p3649
I1
sS'meyers'
p3650
I2
sS'minutes'
p3651
I2
sS'display'
p3652
I1
sS'urging'
p3653
I1
sS'obstacles'
p3654
I1
sS'supreme'
p3655
I1
sS'horrific'
p3656
I1
sS'recognize'
p3657
I1
sS'domino'
p3658
I1
sS'sexually'
p3659
I3
sS'romney'
p3660
I4
sS'sweetheart'
p3661
I1
sS'ins'
p3662
I3
sS'beats'
p3663
I1
sS'lived'
p3664
I1
sS'83'
p3665
I1
sS'arrival'
p3666
I1
sS'rightwing'
p3667
I1
sS'shooting'
p3668
I1
sS'eric'
p3669
I5
sS'incredible'
p3670
I1
sS'agriculture'
p3671
I1
sS'44'
p3672
I1
sS'attacked'
p3673
I5
sS'42'
p3674
I2
sS'43'
p3675
I1
sS'40'
p3676
I1
sS'roars'
p3677
I1
sS'book'
p3678
I5
sS'compares'
p3679
I1
sS'boom'
p3680
I2
sS'sick'
p3681
I4
sS'cair'
p3682
I1
sS'suspiciously'
p3683
I1
sS'mass'
p3684
I3
sS'hysteria'
p3685
I1
sS'tooney'
p3686
I1
sS'dresses'
p3687
I1
sS'montel'
p3688
I1
sS'lance'
p3689
I1
sS'illegally'
p3690
I2
sS'republicans'
p3691
I5
sS'star'
p3692
I30
sS'ways'
p3693
I2
sS'pastor'
p3694
I5
sS'secretly'
p3695
I2
sS'shredded'
p3696
I1
sS'class'
p3697
I2
sS'return'
p3698
I1
sS'insults'
p3699
I2
sS'psychotics'
p3700
I1
sS'chance'
p3701
I6
sS'stab'
p3702
I1
sS'badass'
p3703
I2
sS'friends'
p3704
I1
sS'christians'
p3705
I1
sS'matrix'
p3706
I1
sS'appoint'
p3707
I2
sS'breaks'
p3708
I4
sS'boycottcomedian'
p3709
I1
sS'rounding'
p3710
I1
sS'pierson'
p3711
I1
sS'antiwar'
p3712
I1
sS'uneducated'
p3713
I1
sS'lives'
p3714
I1
sS'yell'
p3715
I1
sS'honchos'
p3716
I1
sS'indirectly'
p3717
I1
sS'8th'
p3718
I1
s.