(dp0
S'pardon'
p1
I2
sS'felt'
p2
I2
sS'four'
p3
I1
sS'obstruction'
p4
I3
sS'protest'
p5
I11
sS'asian'
p6
I1
sS'controversial'
p7
I3
sS'aides'
p8
I2
sS'liar'
p9
I1
sS'ridiculous'
p10
I2
sS'hate'
p11
I2
sS'marching'
p12
I1
sS'stinks'
p13
I1
sS'whose'
p14
I1
sS'votes'
p15
I2
sS'voter'
p16
I4
sS'paris'
p17
I26
sS'tweet'
p18
I12
sS'whack'
p19
I1
sS'investigation'
p20
I12
sS'assets'
p21
I1
sS'voted'
p22
I3
sS'kidman'
p23
I1
sS'under'
p24
I18
sS'sorry'
p25
I1
sS'silicon'
p26
I1
sS'softener'
p27
I1
sS'evangelical'
p28
I1
sS'co2'
p29
I1
sS'commerce'
p30
I1
sS'rise'
p31
I5
sS'shoot'
p32
I2
sS'advisors'
p33
I1
sS'hearin'
p34
I1
sS'every'
p35
I1
sS'updates'
p36
I1
sS'govern'
p37
I1
sS'affect'
p38
I4
sS'exporters'
p39
I1
sS'bringing'
p40
I1
sS'trumpisms'
p41
I1
sS'tickets'
p42
I1
sS'manaforts'
p43
I1
sS'school'
p44
I4
sS'presidency'
p45
I27
sS'investigator'
p46
I1
sS'skills'
p47
I1
sS'34m'
p48
I1
sS'companies'
p49
I5
sS'solution'
p50
I5
sS'herbert'
p51
I1
sS'roadblock'
p52
I1
sS'pardons'
p53
I2
sS'announced'
p54
I1
sS'tussauds'
p55
I1
sS'triumph'
p56
I1
sS'confidence'
p57
I1
sS'expanded'
p58
I1
sS'force'
p59
I7
sS'leaders'
p60
I15
sS'warns'
p61
I25
sS'guidelines'
p62
I1
sS'bridgitte'
p63
I1
sS'voting'
p64
I2
sS'chef'
p65
I1
sS'messy'
p66
I1
sS'likely'
p67
I4
sS'street'
p68
I16
sS'streep'
p69
I2
sS'n'
p70
I3
sS'loathing'
p71
I1
sS'even'
p72
I4
sS'neo'
p73
I2
sS'brexit'
p74
I7
sS'reopens'
p75
I1
sS'prostitutes'
p76
I1
sS'asia'
p77
I16
sS'lights'
p78
I1
sS'decry'
p79
I1
sS'hostile'
p80
I2
sS'causes'
p81
I3
sS'new'
p82
I39
sS'tips'
p83
I1
sS'ever'
p84
I5
sS'seeks'
p85
I3
sS'told'
p86
I3
sS'hero'
p87
I1
sS'sinks'
p88
I1
sS'reporter'
p89
I1
sS'payroll'
p90
I1
sS'men'
p91
I3
sS'ramps'
p92
I1
sS'hundreds'
p93
I1
sS'met'
p94
I4
sS'deposition'
p95
I1
sS'china'
p96
I37
sS'pursuit'
p97
I1
sS'100'
p98
I14
sS'nosedive'
p99
I1
sS'obtained'
p100
I1
sS'disrespect'
p101
I1
sS'luther'
p102
I1
sS'kids'
p103
I2
sS'daughter'
p104
I2
sS'clarify'
p105
I1
sS'leaves'
p106
I5
sS'changed'
p107
I4
sS'approaches'
p108
I1
sS'reports'
p109
I15
sS'controversy'
p110
I1
sS'credit'
p111
I2
sS'saint'
p112
I1
sS'analysts'
p113
I2
sS'transfixed'
p114
I1
sS'military'
p115
I19
sS'mistake'
p116
I1
sS'changes'
p117
I2
sS'cancellation'
p118
I1
sS'intruder'
p119
I1
sS'criticism'
p120
I10
sS'golden'
p121
I2
sS'fantastic'
p122
I1
sS'ridiculed'
p123
I1
sS'campaign'
p124
I20
sS'criticise'
p125
I1
sS'julie'
p126
I2
sS'explained'
p127
I3
sS'julia'
p128
I1
sS'highly'
p129
I1
sS'county'
p130
I1
sS'patience'
p131
I1
sS'pyongyang'
p132
I1
sS'hindus'
p133
I1
sS'opponents'
p134
I1
sS'jinping'
p135
I5
sS'reflected'
p136
I1
sS'would'
p137
I14
sS'palestinian'
p138
I3
sS'played'
p139
I1
sS'grahame'
p140
I1
sS'negative'
p141
I1
sS'leaks'
p142
I5
sS'call'
p143
I31
sS'investment'
p144
I2
sS'raids'
p145
I1
sS'strike'
p146
I9
sS'preview'
p147
I1
sS'tell'
p148
I1
sS'musk'
p149
I2
sS'supporters'
p150
I19
sS'mired'
p151
I1
sS'wars'
p152
I1
sS'hurt'
p153
I2
sS'grief'
p154
I2
sS'phone'
p155
I11
sS'berlin'
p156
I2
sS'warm'
p157
I2
sS'hold'
p158
I4
sS'must'
p159
I7
sS'me'
p160
I3
sS'intake'
p161
I1
sS'join'
p162
I2
sS'room'
p163
I2
sS'rights'
p164
I7
sS'pursue'
p165
I2
sS'work'
p166
I6
sS'eclipse'
p167
I2
sS'refusing'
p168
I1
sS'tc'
p169
I1
sS'locker'
p170
I2
sS'vow'
p171
I1
sS'era'
p172
I11
sS'install'
p173
I1
sS'mr'
p174
I3
sS'already'
p175
I1
sS'im'
p176
I2
sS'radicalisation'
p177
I1
sS'my'
p178
I1
sS'wiretapping'
p179
I3
sS'spicers'
p180
I1
sS'expressed'
p181
I1
sS'estate'
p182
I1
sS'give'
p183
I1
sS'bennett'
p184
I1
sS'india'
p185
I1
sS'missiles'
p186
I2
sS'involve'
p187
I1
sS'currency'
p188
I1
sS'caution'
p189
I1
sS'hardens'
p190
I1
sS'untruthful'
p191
I1
sS'times'
p192
I6
sS'cites'
p193
I1
sS'risk'
p194
I3
sS'end'
p195
I6
sS'devotion'
p196
I1
sS'turn'
p197
I3
sS'doanld'
p198
I1
sS'papadopoulos'
p199
I3
sS'travel'
p200
I52
sS'egyptian'
p201
I1
sS'machine'
p202
I2
sS'how'
p203
I32
sS'beware'
p204
I1
sS'accusations'
p205
I3
sS'answer'
p206
I1
sS'resignation'
p207
I3
sS'badly'
p208
I1
sS'regional'
p209
I1
sS'beauty'
p210
I1
sS'mess'
p211
I1
sS'coined'
p212
I1
sS'after'
p213
I51
sS'damaged'
p214
I1
sS'conway'
p215
I2
sS'wrong'
p216
I3
sS'president'
p217
I66
sS'law'
p218
I10
sS'trumpkin'
p219
I1
sS'las'
p220
I5
sS'third'
p221
I5
sS'wins'
p222
I7
sS'deutsche'
p223
I1
sS'season'
p224
I1
sS'scare'
p225
I1
sS'greek'
p226
I1
sS'unlawfully'
p227
I1
sS'green'
p228
I3
sS'deepens'
p229
I2
sS'order'
p230
I26
sS'slashing'
p231
I1
sS'restriction'
p232
I1
sS'tribulations'
p233
I1
sS'flynns'
p234
I3
sS'zed'
p235
I1
sS'welcomed'
p236
I3
sS'over'
p237
I55
sS'hidden'
p238
I1
sS'london'
p239
I3
sS'japan'
p240
I11
sS'owens'
p241
I1
sS'mayor'
p242
I3
sS'before'
p243
I8
sS'imf'
p244
I4
sS'highlights'
p245
I2
sS'avocado'
p246
I1
sS'expectations'
p247
I1
sS'destroyed'
p248
I3
sS'edits'
p249
I1
sS'production'
p250
I2
sS'irans'
p251
I1
sS'weeks'
p252
I1
sS'easier'
p253
I2
sS'damages'
p254
I1
sS'then'
p255
I1
sS'them'
p256
I1
sS'iowa'
p257
I1
sS'bans'
p258
I4
sS'weakness'
p259
I1
sS'safe'
p260
I1
sS'supporter'
p261
I2
sS'intimidation'
p262
I1
sS'break'
p263
I3
sS'stephanie'
p264
I2
sS'they'
p265
I6
sS'tourism'
p266
I5
sS'bank'
p267
I6
sS'represents'
p268
I1
sS'rhetoric'
p269
I5
sS'fails'
p270
I2
sS'recovery'
p271
I1
sS'classified'
p272
I3
sS'arrested'
p273
I2
sS'l'
p274
I1
sS'armoured'
p275
I1
sS'dumps'
p276
I2
sS'victory'
p277
I25
sS'roast'
p278
I1
sS'louis'
p279
I1
sS'went'
p280
I2
sS'bone'
p281
I2
sS'mean'
p282
I6
sS'signing'
p283
I1
sS'financial'
p284
I3
sS'fairly'
p285
I2
sS'councils'
p286
I1
sS'series'
p287
I4
sS'aide'
p288
I5
sS'literature'
p289
I1
sS'trading'
p290
I1
sS'forgot'
p291
I1
sS'temporary'
p292
I2
sS'piling'
p293
I1
sS'saturday'
p294
I5
sS'gol'
p295
I1
sS'whining'
p296
I2
sS'network'
p297
I1
sS'driving'
p298
I1
sS'recognising'
p299
I1
sS'washed'
p300
I1
sS'mccarthy'
p301
I1
sS're'
p302
I1
sS'daniel'
p303
I10
sS'hanging'
p304
I1
sS'got'
p305
I1
sS'strategist'
p306
I5
sS'gop'
p307
I4
sS'independence'
p308
I2
sS'foundation'
p309
I2
sS'abbott'
p310
I2
sS'arizona'
p311
I2
sS'endorsement'
p312
I1
sS'barrier'
p313
I1
sS'resume'
p314
I1
sS'veto'
p315
I1
sS'tops'
p316
I1
sS'kilcullens'
p317
I1
sS'little'
p318
I1
sS'free'
p319
I3
sS'mourning'
p320
I1
sS'admits'
p321
I2
sS'trumpcare'
p322
I1
sS'ramos'
p323
I1
sS'boosting'
p324
I1
sS'returning'
p325
I1
sS'wanted'
p326
I1
sS'muller'
p327
I1
sS'juan'
p328
I1
sS'dodger'
p329
I1
sS'starts'
p330
I2
sS'refugee'
p331
I22
sS'bypass'
p332
I1
sS'messages'
p333
I1
sS'days'
p334
I14
sS'local'
p335
I1
sS'pence'
p336
I9
sS'renew'
p337
I1
sS'musicians'
p338
I1
sS'oppose'
p339
I1
sS'tied'
p340
I1
sS'uses'
p341
I1
sS'clouding'
p342
I1
sS'appeals'
p343
I7
sS'features'
p344
I1
sS'grade'
p345
I2
sS'reassure'
p346
I2
sS'primary'
p347
I2
sS'rank'
p348
I1
sS'hearing'
p349
I2
sS'channels'
p350
I1
sS'rant'
p351
I1
sS'disappearing'
p352
I1
sS'another'
p353
I9
sS'niger'
p354
I1
sS'clarity'
p355
I1
sS'brussels'
p356
I1
sS'revival'
p357
I1
sS'rejects'
p358
I3
sS'top'
p359
I9
sS'tot'
p360
I1
sS'interlude'
p361
I1
sS'rates'
p362
I1
sS'too'
p363
I4
sS'xiv'
p364
I1
sS'tom'
p365
I1
sS'hollywood'
p366
I4
sS'john'
p367
I10
sS'bitter'
p368
I3
sS'ranging'
p369
I1
sS'damaging'
p370
I1
sS'listen'
p371
I2
sS'collapse'
p372
I1
sS'brushes'
p373
I1
sS'serve'
p374
I1
sS'advisers'
p375
I1
sS'negotiating'
p376
I1
sS'predictable'
p377
I1
sS'western'
p378
I3
sS'deplaned'
p379
I1
sS'uhlmann'
p380
I2
sS'scarborough'
p381
I2
sS'priebus'
p382
I5
sS'begins'
p383
I2
sS'distance'
p384
I1
sS'fuelled'
p385
I1
sS'target'
p386
I3
sS'showed'
p387
I1
sS'nominate'
p388
I1
sS'immigrants'
p389
I2
sS'tree'
p390
I1
sS'second'
p391
I9
sS'trumpland'
p392
I1
sS'nations'
p393
I3
sS'trey'
p394
I1
sS'matter'
p395
I1
sS'jennett'
p396
I1
sS'speaking'
p397
I1
sS'regions'
p398
I1
sS'hacking'
p399
I6
sS'powers'
p400
I2
sS'bridge'
p401
I1
sS'youre'
p402
I1
sS'apra'
p403
I1
sS'modern'
p404
I1
sS'mind'
p405
I2
sS'assange'
p406
I2
sS'resettlement'
p407
I3
sS'rap'
p408
I2
sS'pokies'
p409
I1
sS'seen'
p410
I1
sS'seek'
p411
I2
sS'tells'
p412
I17
sS'car'
p413
I3
sS'affairs'
p414
I1
sS'abroad'
p415
I1
sS'11yo'
p416
I1
sS'appointees'
p417
I1
sS'ricos'
p418
I1
sS'cheer'
p419
I2
sS'hamper'
p420
I1
sS'sound'
p421
I1
sS'edge'
p422
I1
sS'academy'
p423
I1
sS'gorka'
p424
I2
sS'rides'
p425
I1
sS'kremlin'
p426
I4
sS'greatest'
p427
I2
sS'concedes'
p428
I1
sS'blue'
p429
I2
sS'maiden'
p430
I1
sS'bruce'
p431
I4
sS'sue'
p432
I3
sS'landmark'
p433
I1
sS'regular'
p434
I1
sS'germany'
p435
I3
sS'meddling'
p436
I1
sS'letter'
p437
I6
sS'echoes'
p438
I2
sS'the'
p439
I173
sS'exonerate'
p440
I1
sS'maria'
p441
I1
sS'stupid'
p442
I2
sS'episode'
p443
I5
sS'atonement'
p444
I1
sS'accord'
p445
I3
sS'flop'
p446
I1
sS'm'
p447
I1
sS'dog'
p448
I1
sS'storm'
p449
I2
sS'tech'
p450
I3
sS'pimco'
p451
I1
sS'epa'
p452
I2
sS'dow'
p453
I2
sS'came'
p454
I1
sS'reserve'
p455
I2
sS'saying'
p456
I2
sS'signatures'
p457
I1
sS'tackles'
p458
I1
sS'pope'
p459
I2
sS'ambassador'
p460
I4
sS'saga'
p461
I2
sS'meetings'
p462
I1
sS'labels'
p463
I2
sS'appreciates'
p464
I1
sS'sexist'
p465
I1
sS'liberty'
p466
I1
sS'lethal'
p467
I1
sS'nominates'
p468
I2
sS'turnbull'
p469
I55
sS'nevada'
p470
I1
sS'lessons'
p471
I2
sS'parodies'
p472
I2
sS'judges'
p473
I1
sS'concilliatory'
p474
I1
sS'unleashes'
p475
I1
sS'judgey'
p476
I1
sS'menu'
p477
I1
sS'explain'
p478
I1
sS'cripple'
p479
I1
sS'sugar'
p480
I1
sS'here'
p481
I1
sS'rico'
p482
I5
sS'bush'
p483
I7
sS'screening'
p484
I1
sS'rich'
p485
I1
sS'mend'
p486
I1
sS'jailed'
p487
I1
sS'wearing'
p488
I2
sS'do'
p489
I10
sS'exports'
p490
I1
sS'wide'
p491
I1
sS'de'
p492
I4
sS'stop'
p493
I9
sS'dc'
p494
I4
sS'coast'
p495
I1
sS'amazon'
p496
I1
sS'haunted'
p497
I1
sS'mention'
p498
I1
sS'despite'
p499
I8
sS'report'
p500
I6
sS'onboard'
p501
I1
sS'learned'
p502
I1
sS'volatility'
p503
I1
sS'bar'
p504
I1
sS'gareth'
p505
I1
sS'countries'
p506
I4
sS'nicely'
p507
I1
sS'roger'
p508
I1
sS'ciobo'
p509
I1
sS'baz'
p510
I1
sS'shape'
p511
I1
sS'guns'
p512
I1
sS'bad'
p513
I7
sS'erupt'
p514
I1
sS'disney'
p515
I1
sS'shots'
p516
I1
sS'18'
p517
I1
sS'ban'
p518
I75
sS'shocks'
p519
I1
sS'lavrov'
p520
I1
sS'secretary'
p521
I14
sS'respond'
p522
I1
sS'money'
p523
I1
sS'decides'
p524
I1
sS'disaster'
p525
I2
sS'fair'
p526
I2
sS'automakers'
p527
I1
sS'reported'
p528
I1
sS'vandalised'
p529
I2
sS'zones'
p530
I1
sS'checks'
p531
I1
sS'decided'
p532
I1
sS'result'
p533
I4
sS'cattle'
p534
I1
sS'fail'
p535
I1
sS'christian'
p536
I1
sS'swedes'
p537
I1
sS'best'
p538
I2
sS'clarifies'
p539
I1
sS'pete'
p540
I2
sS'roberts'
p541
I1
sS'said'
p542
I6
sS'draws'
p543
I4
sS'grattan'
p544
I2
sS'coats'
p545
I1
sS'away'
p546
I2
sS'sherrif'
p547
I1
sS'finger'
p548
I1
sS'cooperation'
p549
I2
sS'sorts'
p550
I1
sS'encounters'
p551
I1
sS'ire'
p552
I1
sS'preserve'
p553
I1
sS'we'
p554
I7
sS'never'
p555
I2
sS'parallels'
p556
I2
sS'wa'
p557
I2
sS'vows'
p558
I12
sS'bharara'
p559
I1
sS'literally'
p560
I1
sS'downgrades'
p561
I1
sS'were'
p562
I4
sS'weak'
p563
I2
sS'boss'
p564
I7
sS'harvard'
p565
I1
sS'answers'
p566
I1
sS'travellers'
p567
I2
sS'news'
p568
I23
sS'picking'
p569
I1
sS'frydenberg'
p570
I1
sS'islamphobic'
p571
I1
sS'electing'
p572
I1
sS'cop'
p573
I1
sS'climate'
p574
I34
sS'uns'
p575
I2
sS'veep'
p576
I1
sS'covfefe'
p577
I3
sS'coy'
p578
I1
sS'country'
p579
I1
sS'ill'
p580
I1
sS'uncertainty'
p581
I2
sS'against'
p582
I29
sS'sympathises'
p583
I1
sS'players'
p584
I5
sS'games'
p585
I1
sS'steer'
p586
I1
sS'receives'
p587
I2
sS'faces'
p588
I7
sS'uni'
p589
I1
sS'requests'
p590
I2
sS'obamas'
p591
I3
sS'asked'
p592
I3
sS'pre'
p593
I2
sS'nikki'
p594
I1
sS'tough'
p595
I4
sS'epidemic'
p596
I1
sS'tony'
p597
I1
sS'loaded'
p598
I1
sS'trust'
p599
I1
sS'speak'
p600
I3
sS'conference'
p601
I9
sS'aback'
p602
I2
sS'iraq'
p603
I1
sS'recognises'
p604
I1
sS'asks'
p605
I7
sS'chrome'
p606
I1
sS'condemned'
p607
I1
sS'criticised'
p608
I1
sS'been'
p609
I5
sS'confident'
p610
I1
sS'gillibrand'
p611
I2
sS'much'
p612
I5
sS'interest'
p613
I1
sS'expected'
p614
I3
sS'criticises'
p615
I7
sS'deportations'
p616
I1
sS'website'
p617
I1
sS'life'
p618
I4
sS'premier'
p619
I1
sS'families'
p620
I1
sS'innocent'
p621
I2
sS'eastern'
p622
I1
sS'republicans'
p623
I11
sS'worker'
p624
I1
sS'search'
p625
I1
sS'attacker'
p626
I1
sS'dave'
p627
I1
sS'tapping'
p628
I2
sS'personally'
p629
I1
sS'bounce'
p630
I1
sS'unpopular'
p631
I1
sS'has'
p632
I37
sS'backdown'
p633
I2
sS'publicly'
p634
I1
sS'affirm'
p635
I1
sS'launches'
p636
I2
sS'heartland'
p637
I1
sS'economies'
p638
I1
sS'castro'
p639
I1
sS'air'
p640
I3
sS'aim'
p641
I6
sS'dept'
p642
I1
sS'near'
p643
I1
sS'decapitated'
p644
I1
sS'depp'
p645
I2
sS'aid'
p646
I6
sS'launched'
p647
I1
sS'release'
p648
I4
sS'unease'
p649
I1
sS'usps'
p650
I1
sS'mexico'
p651
I20
sS'is'
p652
I78
sS'it'
p653
I26
sS'skipping'
p654
I1
sS'cant'
p655
I1
sS'experts'
p656
I4
sS'ramifications'
p657
I1
sS'in'
p658
I214
sS'victims'
p659
I2
sS'ignoring'
p660
I1
sS'if'
p661
I14
sS'confirmed'
p662
I3
sS'stein'
p663
I1
sS'suggest'
p664
I1
sS'make'
p665
I11
sS'any'
p666
I1
sS'complex'
p667
I1
sS'lays'
p668
I1
sS'split'
p669
I3
sS'avoids'
p670
I2
sS'several'
p671
I1
sS'bid'
p672
I6
sS'european'
p673
I3
sS'meets'
p674
I11
sS'condemnation'
p675
I3
sS'marches'
p676
I1
sS'kushner'
p677
I5
sS'blames'
p678
I3
sS'hang'
p679
I1
sS'evil'
p680
I1
sS'hand'
p681
I1
sS'slovenia'
p682
I1
sS'afraid'
p683
I1
sS'kim'
p684
I7
sS'rex'
p685
I7
sS'neutralise'
p686
I1
sS'opportunity'
p687
I2
sS'trucks'
p688
I1
sS'russians'
p689
I1
sS'wadah'
p690
I1
sS'programs'
p691
I1
sS'charlie'
p692
I2
sS'failing'
p693
I1
sS'deal'
p694
I51
sS'contact'
p695
I3
sS'subpoena'
p696
I1
sS'detained'
p697
I1
sS'conflict'
p698
I2
sS'claims'
p699
I12
sS'alabama'
p700
I4
sS'camps'
p701
I1
sS'corporate'
p702
I1
sS'left'
p703
I4
sS'birth'
p704
I1
sS'just'
p705
I9
sS'photo'
p706
I3
sS'slammed'
p707
I1
sS'unfair'
p708
I2
sS'effects'
p709
I1
sS'quotes'
p710
I1
sS'fighters'
p711
I1
sS'thanks'
p712
I8
sS'human'
p713
I4
sS'decries'
p714
I1
sS'yet'
p715
I3
sS'previous'
p716
I1
sS'handshake'
p717
I6
sS'unique'
p718
I1
sS'robart'
p719
I1
sS'candidate'
p720
I1
sS'similarities'
p721
I1
sS'ease'
p722
I1
sS'assassination'
p723
I2
sS'had'
p724
I7
sS'mask'
p725
I1
sS'potential'
p726
I1
sS'board'
p727
I1
sS'easy'
p728
I1
sS'east'
p729
I11
sS'gave'
p730
I1
sS'mocked'
p731
I1
sS'insensitive'
p732
I1
sS'enviornment'
p733
I1
sS'advances'
p734
I1
sS'breaks'
p735
I6
sS'possible'
p736
I5
sS'arab'
p737
I1
sS'jekyll'
p738
I1
sS'cultural'
p739
I1
sS'donal'
p740
I1
sS'barge'
p741
I1
sS'newcastle'
p742
I2
sS'judge'
p743
I6
sS'replace'
p744
I5
sS'vanity'
p745
I1
sS'desire'
p746
I1
sS'exxon'
p747
I1
sS'glitch'
p748
I1
sS'hunt'
p749
I1
sS'50'
p750
I1
sS'arrivals'
p751
I1
sS'steps'
p752
I3
sS'officer'
p753
I1
sS'night'
p754
I9
sS'security'
p755
I18
sS'sebastian'
p756
I2
sS'snubs'
p757
I1
sS'attorney'
p758
I4
sS'right'
p759
I11
sS'dean'
p760
I2
sS'crowd'
p761
I2
sS'people'
p762
I5
sS'sends'
p763
I3
sS'successfully'
p764
I1
sS'dead'
p765
I4
sS'jennifer'
p766
I1
sS'donald'
p767
I829
sS'armando'
p768
I1
sS'election'
p769
I87
sS'displeasure'
p770
I1
sS'pulls'
p771
I1
sS'dear'
p772
I1
sS'harassment'
p773
I1
sS'parcel'
p774
I1
sS'denies'
p775
I11
sS'congratulate'
p776
I1
sS'friend'
p777
I3
sS'clash'
p778
I5
sS'for'
p779
I174
sS'fourth'
p780
I1
sS'centre'
p781
I2
sS'fox'
p782
I2
sS'comments'
p783
I30
sS'mulls'
p784
I1
sS'asking'
p785
I1
sS'frum'
p786
I1
sS'denied'
p787
I2
sS'cnn'
p788
I2
sS'beating'
p789
I2
sS'christmas'
p790
I2
sS'sarah'
p791
I2
sS'shakes'
p792
I2
sS'bold'
p793
I1
sS'provocations'
p794
I1
sS'losing'
p795
I1
sS'guild'
p796
I1
sS'post'
p797
I7
sS'manufacturing'
p798
I2
sS'super'
p799
I1
sS'shaken'
p800
I1
sS'increasingly'
p801
I1
sS'attacks'
p802
I11
sS'coral'
p803
I1
sS'months'
p804
I1
sS'accepts'
p805
I2
sS'undocumented'
p806
I1
sS'dinner'
p807
I6
sS'misleading'
p808
I3
sS'plus'
p809
I1
sS'islands'
p810
I2
sS'curry'
p811
I1
sS'meddle'
p812
I1
sS'bannon'
p813
I11
sS'raised'
p814
I1
sS'gloss'
p815
I1
sS'whats'
p816
I6
sS'lied'
p817
I2
sS'civil'
p818
I3
sS'pays'
p819
I2
sS'dfat'
p820
I1
sS'appoints'
p821
I3
sS'son'
p822
I4
sS'down'
p823
I10
sS'wray'
p824
I1
sS'sos'
p825
I1
sS'magazines'
p826
I1
sS'raises'
p827
I2
sS'wrap'
p828
I7
sS'old'
p829
I3
sS'lewd'
p830
I1
sS'rely'
p831
I1
sS'alarmed'
p832
I2
sS'lashes'
p833
I6
sS'sally'
p834
I1
sS'support'
p835
I11
sS'fight'
p836
I10
sS'virgin'
p837
I2
sS'anderson'
p838
I1
sS'lago'
p839
I2
sS'way'
p840
I4
sS'music'
p841
I1
sS'was'
p842
I18
sS'war'
p843
I14
sS'happy'
p844
I4
sS'head'
p845
I10
sS'offer'
p846
I4
sS'differences'
p847
I2
sS'mysterious'
p848
I1
sS'heat'
p849
I2
sS'hear'
p850
I1
sS'lows'
p851
I1
sS'solar'
p852
I2
sS'tasmania'
p853
I2
sS'removed'
p854
I2
sS'true'
p855
I4
sS'220'
p856
I1
sS'reset'
p857
I1
sS'counsel'
p858
I2
sS'marchers'
p859
I2
sS'isis'
p860
I1
sS'veiled'
p861
I2
sS'emin'
p862
I1
sS'inside'
p863
I1
sS'clubs'
p864
I1
sS'qualifier'
p865
I1
sS'peso'
p866
I1
sS'conservatives'
p867
I1
sS'vatican'
p868
I3
sS'emotional'
p869
I1
sS'panels'
p870
I1
sS'propaganda'
p871
I2
sS'delete'
p872
I2
sS'promises'
p873
I12
sS'looms'
p874
I2
sS'liberal'
p875
I1
sS'moore'
p876
I8
sS'scandalous'
p877
I1
sS'fury'
p878
I2
sS'insistence'
p879
I1
sS'kansas'
p880
I1
sS'evidence'
p881
I4
sS'promised'
p882
I1
sS'horta'
p883
I1
sS'elon'
p884
I2
sS'door'
p885
I2
sS'widows'
p886
I1
sS'trip'
p887
I10
sS'negotiations'
p888
I1
sS'regime'
p889
I1
sS'no'
p890
I15
sS'daca'
p891
I7
sS'when'
p892
I5
sS'alertthedaycarestaff'
p893
I1
sS'reality'
p894
I1
sS'ny'
p895
I2
sS'setting'
p896
I1
sS'jong'
p897
I5
sS'holding'
p898
I1
sS'digital'
p899
I1
sS'test'
p900
I6
sS'transgender'
p901
I12
sS'nt'
p902
I1
sS'company'
p903
I1
sS'brothers'
p904
I1
sS'phoenix'
p905
I4
sS'irma'
p906
I4
sS'models'
p907
I1
sS'leak'
p908
I1
sS'why'
p909
I24
sS'welcome'
p910
I4
sS'update'
p911
I1
sS'devos'
p912
I1
sS'journey'
p913
I2
sS'rebuked'
p914
I1
sS'rolling'
p915
I1
sS'spy'
p916
I1
sS'weekend'
p917
I1
sS'derail'
p918
I1
sS'jones'
p919
I1
sS'happening'
p920
I2
sS'apology'
p921
I1
sS'glass'
p922
I1
sS'australians'
p923
I2
sS'daily'
p924
I1
sS'time'
p925
I15
sS'push'
p926
I9
sS'serious'
p927
I3
sS'overturned'
p928
I1
sS'uhlmanns'
p929
I1
sS'songs'
p930
I1
sS'anglican'
p931
I1
sS'coach'
p932
I1
sS'diplomacy'
p933
I4
sS'dance'
p934
I1
sS'skip'
p935
I2
sS'global'
p936
I8
sS'skit'
p937
I1
sS'mcgahn'
p938
I1
sS'roy'
p939
I7
sS'manager'
p940
I1
sS'ice'
p941
I1
sS'skin'
p942
I1
sS'battle'
p943
I3
sS'chair'
p944
I2
sS'row'
p945
I2
sS'vet'
p946
I1
sS'touches'
p947
I1
sS'praises'
p948
I8
sS'meryl'
p949
I2
sS'obamacare'
p950
I10
sS'disgusting'
p951
I1
sS'passage'
p952
I1
sS'environment'
p953
I1
sS'iraqi'
p954
I1
sS'charge'
p955
I2
sS'praised'
p956
I2
sS'sceptical'
p957
I1
sS'terror'
p958
I4
sS'moron'
p959
I1
sS'veterans'
p960
I2
sS'protestors'
p961
I2
sS'rebecca'
p962
I1
sS'adviser'
p963
I13
sS'supported'
p964
I1
sS'pompeo'
p965
I2
sS'keeping'
p966
I1
sS'choice'
p967
I1
sS'vegas'
p968
I5
sS'robarts'
p969
I1
sS'defying'
p970
I2
sS'celebrations'
p971
I1
sS'word'
p972
I1
sS'trouble'
p973
I4
sS'blast'
p974
I1
sS'minute'
p975
I1
sS'governments'
p976
I1
sS'doesn'
p977
I1
sS'bring'
p978
I2
sS'did'
p979
I17
sS'turns'
p980
I5
sS'philippines'
p981
I3
sS'dodd'
p982
I2
sS'posts'
p983
I3
sS'hawaii'
p984
I1
sS'standards'
p985
I1
sS'leave'
p986
I4
sS'holliday'
p987
I2
sS'settle'
p988
I2
sS'denounces'
p989
I3
sS'team'
p990
I11
sS'quick'
p991
I2
sS'speculation'
p992
I2
sS'qanda'
p993
I2
sS'revolution'
p994
I3
sS'says'
p995
I178
sS'fearing'
p996
I1
sS'findings'
p997
I1
sS'pms'
p998
I1
sS'trend'
p999
I1
sS'dealing'
p1000
I1
sS'cyber'
p1001
I3
sS'sign'
p1002
I1
sS'cost'
p1003
I5
sS'targets'
p1004
I1
sS'yorks'
p1005
I1
sS'resurgence'
p1006
I1
sS'adds'
p1007
I1
sS'constitution'
p1008
I2
sS'g20'
p1009
I15
sS'favour'
p1010
I1
sS'shares'
p1011
I3
sS'brink'
p1012
I1
sS'daft'
p1013
I1
sS'suspect'
p1014
I1
sS'goes'
p1015
I3
sS'shared'
p1016
I1
sS'appeal'
p1017
I2
sS'boost'
p1018
I1
sS'supporting'
p1019
I1
sS'processing'
p1020
I1
sS'jury'
p1021
I1
sS'dwarf'
p1022
I1
sS'heavily'
p1023
I1
sS'honour'
p1024
I1
sS'inauguration'
p1025
I24
sS'muslim'
p1026
I6
sS'envy'
p1027
I1
sS'french'
p1028
I2
sS'understanding'
p1029
I1
sS'witch'
p1030
I1
sS'groups'
p1031
I2
sS'address'
p1032
I9
sS'alone'
p1033
I2
sS'teaches'
p1034
I1
sS'appears'
p1035
I6
sS'change'
p1036
I15
sS'boy'
p1037
I4
sS'shove'
p1038
I1
sS'impacted'
p1039
I1
sS'guilty'
p1040
I2
sS'shooter'
p1041
I1
sS'suggestion'
p1042
I1
sS'patriotic'
p1043
I1
sS'bob'
p1044
I5
sS'airbase'
p1045
I1
sS'love'
p1046
I5
sS'humour'
p1047
I1
sS'fake'
p1048
I12
sS'scam'
p1049
I1
sS'fbi'
p1050
I26
sS'should'
p1051
I17
sS'crisis'
p1052
I6
sS'market'
p1053
I6
sS'challenging'
p1054
I1
sS'troops'
p1055
I5
sS'working'
p1056
I5
sS'australias'
p1057
I4
sS'isolationist'
p1058
I1
sS'tillerson'
p1059
I10
sS'angry'
p1060
I1
sS'visit'
p1061
I14
sS'angela'
p1062
I2
sS'france'
p1063
I2
sS'insider'
p1064
I1
sS'live'
p1065
I8
sS'dreamers'
p1066
I3
sS'vaccine'
p1067
I1
sS'criteria'
p1068
I1
sS'australian'
p1069
I9
sS'today'
p1070
I2
sS'akhmetshin'
p1071
I1
sS'introducing'
p1072
I1
sS'sharing'
p1073
I2
sS'continue'
p1074
I1
sS'sessions'
p1075
I10
sS'club'
p1076
I2
sS'apparent'
p1077
I1
sS'oregon'
p1078
I1
sS'fuel'
p1079
I2
sS'ignorant'
p1080
I2
sS'sanctimony'
p1081
I1
sS'recommits'
p1082
I1
sS'keeps'
p1083
I1
sS'demolish'
p1084
I1
sS'migrants'
p1085
I1
sS'recites'
p1086
I2
sS'defeats'
p1087
I1
sS'julius'
p1088
I1
sS'thousands'
p1089
I1
sS'cap'
p1090
I2
sS'believes'
p1091
I2
sS'reviews'
p1092
I1
sS'gathers'
p1093
I1
sS'drags'
p1094
I1
sS'can'
p1095
I17
sS'following'
p1096
I1
sS'making'
p1097
I4
sS'arrive'
p1098
I2
sS'laughter'
p1099
I1
sS'claim'
p1100
I7
sS'whiteboard'
p1101
I1
sS'trump'
p1102
I1744
sS'lobbying'
p1103
I1
sS'contradicts'
p1104
I1
sS'locks'
p1105
I1
sS'council'
p1106
I4
sS'allowed'
p1107
I1
sS'provoke'
p1108
I1
sS'impartiality'
p1109
I1
sS'hasan'
p1110
I1
sS'productive'
p1111
I2
sS'winter'
p1112
I1
sS'means'
p1113
I1
sS'magazine'
p1114
I2
sS'nyt'
p1115
I2
sS'1'
p1116
I2
sS'hostage'
p1117
I1
sS'sword'
p1118
I2
sS'elephant'
p1119
I1
sS'dutton'
p1120
I3
sS'speaks'
p1121
I3
sS'sworn'
p1122
I1
sS'divides'
p1123
I1
sS'economy'
p1124
I6
sS'map'
p1125
I1
sS'snaps'
p1126
I2
sS'mar'
p1127
I2
sS'seoul'
p1128
I2
sS'huge'
p1129
I1
sS'may'
p1130
I16
sS'max'
p1131
I1
sS'snl'
p1132
I4
sS'use'
p1133
I5
sS'anzus'
p1134
I1
sS'fascism'
p1135
I1
sS'meddled'
p1136
I1
sS'osborne'
p1137
I1
sS'snr'
p1138
I1
sS'mad'
p1139
I1
sS'date'
p1140
I1
sS'suck'
p1141
I1
sS'revealed'
p1142
I4
sS'grow'
p1143
I1
sS'man'
p1144
I8
sS'classroom'
p1145
I1
sS'complimentary'
p1146
I1
sS'remember'
p1147
I2
sS'johnson'
p1148
I1
sS'mayweather'
p1149
I2
sS'jokester'
p1150
I1
sS'st'
p1151
I12
sS'q'
p1152
I4
sS'provide'
p1153
I2
sS'so'
p1154
I5
sS'african'
p1155
I2
sS'pulled'
p1156
I1
sS'talk'
p1157
I14
sS'fallout'
p1158
I2
sS'canberra'
p1159
I1
sS'food'
p1160
I1
sS'deactivated'
p1161
I2
sS'flips'
p1162
I1
sS'course'
p1163
I3
sS'accolades'
p1164
I1
sS'cuts'
p1165
I9
sS'argued'
p1166
I1
sS'kanye'
p1167
I1
sS'still'
p1168
I3
sS'blocked'
p1169
I2
sS'designates'
p1170
I1
sS'overhaul'
p1171
I3
sS'monitor'
p1172
I1
sS'hrw'
p1173
I1
sS'torn'
p1174
I1
sS'hot'
p1175
I1
sS'trumpocalypse'
p1176
I1
sS'wasting'
p1177
I1
sS'voiced'
p1178
I1
sS'offers'
p1179
I4
sS'celebrate'
p1180
I1
sS'tweets'
p1181
I20
sS'mail'
p1182
I1
sS'troubled'
p1183
I1
sS'undermines'
p1184
I1
sS'decertify'
p1185
I2
sS'limbo'
p1186
I3
sS'happened'
p1187
I4
sS'non'
p1188
I2
sS'finance'
p1189
I5
sS'unveiling'
p1190
I1
sS'civilian'
p1191
I1
sS'smarter'
p1192
I1
sS'reject'
p1193
I1
sS'undisclosed'
p1194
I1
sS'nation'
p1195
I3
sS'tucker'
p1196
I1
sS'records'
p1197
I3
sS'touching'
p1198
I1
sS'hamilton'
p1199
I1
sS'cauldron'
p1200
I1
sS'kkk'
p1201
I1
sS'half'
p1202
I1
sS'not'
p1203
I43
sS'now'
p1204
I9
sS'hall'
p1205
I2
sS'unpredictability'
p1206
I1
sS'matched'
p1207
I1
sS'wont'
p1208
I7
sS'term'
p1209
I2
sS'attorneys'
p1210
I2
sS'name'
p1211
I2
sS'lies'
p1212
I2
sS'reince'
p1213
I4
sS'james'
p1214
I23
sS'drop'
p1215
I3
sS'roasts'
p1216
I1
sS'murals'
p1217
I1
sS'possibilities'
p1218
I1
sS'realise'
p1219
I1
sS'suspends'
p1220
I1
sS'entirely'
p1221
I2
sS'repaired'
p1222
I1
sS'fired'
p1223
I4
sS'mueller'
p1224
I4
sS'ed'
p1225
I1
sS'revised'
p1226
I1
sS'challenges'
p1227
I4
sS'armada'
p1228
I1
sS'fires'
p1229
I8
sS'farewell'
p1230
I1
sS'ex'
p1231
I3
sS'begun'
p1232
I1
sS'year'
p1233
I8
sS'eu'
p1234
I2
sS'tumultuous'
p1235
I1
sS'tuned'
p1236
I4
sS'disasters'
p1237
I1
sS'er'
p1238
I1
sS'canada'
p1239
I1
sS'billions'
p1240
I1
sS'jackson'
p1241
I2
sS'space'
p1242
I2
sS'lebron'
p1243
I3
sS'factory'
p1244
I1
sS'cancels'
p1245
I2
sS'increase'
p1246
I3
sS'condemns'
p1247
I7
sS'internet'
p1248
I1
sS'predecessors'
p1249
I1
sS'churches'
p1250
I1
sS'dominate'
p1251
I4
sS'assurance'
p1252
I1
sS'shows'
p1253
I7
sS'complicates'
p1254
I1
sS'theory'
p1255
I1
sS'curbs'
p1256
I1
sS'state'
p1257
I15
sS'holocaust'
p1258
I1
sS'million'
p1259
I3
sS'possibility'
p1260
I1
sS'vicious'
p1261
I2
sS'screaming'
p1262
I1
sS'recordings'
p1263
I1
sS'california'
p1264
I1
sS'plea'
p1265
I1
sS'quits'
p1266
I2
sS'orb'
p1267
I1
sS'card'
p1268
I3
sS'care'
p1269
I3
sS'triumphs'
p1270
I1
sS'language'
p1271
I3
sS'ministry'
p1272
I1
sS'flare'
p1273
I1
sS'transition'
p1274
I6
sS'punk'
p1275
I1
sS'tries'
p1276
I1
sS'british'
p1277
I2
sS'replacement'
p1278
I1
sS'thing'
p1279
I3
sS'place'
p1280
I1
sS'massive'
p1281
I1
sS'swing'
p1282
I1
sS'accerate'
p1283
I1
sS'view'
p1284
I1
sS'cartooning'
p1285
I1
sS'think'
p1286
I8
sS'crushed'
p1287
I1
sS'first'
p1288
I44
sS'wenesday'
p1289
I1
sS'xi'
p1290
I13
sS'saving'
p1291
I1
sS'xl'
p1292
I1
sS'rachel'
p1293
I2
sS'parkinson'
p1294
I1
sS'one'
p1295
I15
sS'multibillion'
p1296
I1
sS'americans'
p1297
I13
sS'beaten'
p1298
I2
sS'suspended'
p1299
I1
sS'suing'
p1300
I1
sS'vote'
p1301
I14
sS'impossible'
p1302
I1
sS'message'
p1303
I5
sS'open'
p1304
I7
sS'george'
p1305
I8
sS'ripping'
p1306
I2
sS'millions'
p1307
I1
sS'city'
p1308
I2
sS'given'
p1309
I2
sS'ian'
p1310
I1
sS'stuck'
p1311
I1
sS'murky'
p1312
I1
sS'caught'
p1313
I2
sS'trillion'
p1314
I4
sS'carson'
p1315
I1
sS'indicate'
p1316
I1
sS'returns'
p1317
I4
sS'2'
p1318
I2
sS'draft'
p1319
I2
sS'escort'
p1320
I1
sS'convention'
p1321
I1
sS'white'
p1322
I51
sS'williams'
p1323
I2
sS'gives'
p1324
I8
sS'slashes'
p1325
I1
sS'exploring'
p1326
I1
sS'mining'
p1327
I1
sS'tempers'
p1328
I1
sS'releases'
p1329
I2
sS'that'
p1330
I12
sS'trumped'
p1331
I3
sS'moscow'
p1332
I3
sS'montenegro'
p1333
I1
sS'subpoenas'
p1334
I1
sS'tombstones'
p1335
I1
sS'broadcast'
p1336
I1
sS'hillary'
p1337
I24
sS'huw'
p1338
I1
sS'aleppo'
p1339
I1
sS'copy'
p1340
I2
sS'than'
p1341
I14
sS'population'
p1342
I1
sS'10'
p1343
I1
sS'television'
p1344
I2
sS'15'
p1345
I1
sS'14'
p1346
I1
sS'17'
p1347
I1
sS'rival'
p1348
I1
sS'diplomatic'
p1349
I2
sS'counters'
p1350
I1
sS'optimism'
p1351
I2
sS'spokeswoman'
p1352
I1
sS'sabotaged'
p1353
I1
sS'standing'
p1354
I1
sS'future'
p1355
I3
sS'opens'
p1356
I2
sS'amid'
p1357
I7
sS'cards'
p1358
I1
sS'marines'
p1359
I1
sS'outcome'
p1360
I1
sS'oath'
p1361
I1
sS'russia'
p1362
I61
sS'shakeup'
p1363
I1
sS'sean'
p1364
I4
sS'and'
p1365
I116
sS'savages'
p1366
I1
sS'san'
p1367
I3
sS'investors'
p1368
I2
sS'supremacist'
p1369
I1
sS'pro'
p1370
I3
sS'seal'
p1371
I2
sS'sad'
p1372
I4
sS'say'
p1373
I10
sS'conspiracy'
p1374
I1
sS'buried'
p1375
I1
sS'anger'
p1376
I1
sS'impersonators'
p1377
I1
sS'sells'
p1378
I1
sS'recover'
p1379
I2
sS'hates'
p1380
I1
sS'zoe'
p1381
I10
sS'sending'
p1382
I1
sS'aside'
p1383
I2
sS'shocked'
p1384
I1
sS'clintons'
p1385
I2
sS'recreates'
p1386
I1
sS'take'
p1387
I13
sS'online'
p1388
I1
sS'dreamer'
p1389
I1
sS'performance'
p1390
I3
sS'rages'
p1391
I1
sS'urge'
p1392
I4
sS'begin'
p1393
I2
sS'brazenness'
p1394
I1
sS'norman'
p1395
I1
sS'ukrainian'
p1396
I1
sS'ascendency'
p1397
I1
sS'price'
p1398
I2
sS'knew'
p1399
I2
sS'israeli'
p1400
I3
sS'paid'
p1401
I1
sS'falls'
p1402
I3
sS'assault'
p1403
I4
sS'mate'
p1404
I2
sS'net'
p1405
I1
sS'remarks'
p1406
I6
sS'america'
p1407
I20
sS'locked'
p1408
I1
sS'michelle'
p1409
I2
sS'lawn'
p1410
I1
sS'registering'
p1411
I1
sS'proud'
p1412
I1
sS'talents'
p1413
I1
sS'wing'
p1414
I4
sS'federal'
p1415
I5
sS'jitters'
p1416
I1
sS'trafficking'
p1417
I1
sS'jumped'
p1418
I1
sS'senior'
p1419
I2
sS'event'
p1420
I3
sS'rating'
p1421
I2
sS'walking'
p1422
I2
sS'spruik'
p1423
I1
sS'melania'
p1424
I9
sS'show'
p1425
I7
sS'allegations'
p1426
I6
sS'merit'
p1427
I1
sS'hopes'
p1428
I4
sS'cambodian'
p1429
I1
sS'hack'
p1430
I1
sS'corner'
p1431
I1
sS'label'
p1432
I1
sS'deportation'
p1433
I3
sS'righteous'
p1434
I1
sS'office'
p1435
I4
sS'genius'
p1436
I1
sS'pump'
p1437
I1
sS'junior'
p1438
I1
sS'only'
p1439
I4
sS'going'
p1440
I2
sS'black'
p1441
I1
sS'pollsters'
p1442
I1
sS'jabs'
p1443
I1
sS'congressional'
p1444
I1
sS'dispute'
p1445
I1
sS'dishonourable'
p1446
I1
sS'get'
p1447
I6
sS'committed'
p1448
I3
sS'assistant'
p1449
I1
sS'merkel'
p1450
I3
sS'trumpean'
p1451
I1
sS'soon'
p1452
I1
sS'israels'
p1453
I5
sS'quiff'
p1454
I1
sS'honours'
p1455
I1
sS'brit'
p1456
I1
sS'bastille'
p1457
I1
sS'comment'
p1458
I3
sS'prime'
p1459
I2
sS'reveal'
p1460
I3
sS'reading'
p1461
I1
sS'mattis'
p1462
I1
sS'keenly'
p1463
I1
sS'busiest'
p1464
I1
sS'logan'
p1465
I1
sS'morning'
p1466
I3
sS'jokes'
p1467
I2
sS'interpersonal'
p1468
I1
sS'clowns'
p1469
I1
sS'predicted'
p1470
I1
sS'worries'
p1471
I1
sS'through'
p1472
I1
sS'where'
p1473
I3
sS'worrying'
p1474
I2
sS'vision'
p1475
I3
sS'reveals'
p1476
I1
sS'learn'
p1477
I2
sS'concert'
p1478
I1
sS'physically'
p1479
I1
sS'icbm'
p1480
I1
sS'seat'
p1481
I1
sS'elected'
p1482
I4
sS'college'
p1483
I4
sS'declares'
p1484
I5
sS'ignores'
p1485
I2
sS'misconduct'
p1486
I2
sS'sport'
p1487
I1
sS'dives'
p1488
I1
sS'ability'
p1489
I1
sS'suspects'
p1490
I1
sS'rumours'
p1491
I1
sS'mortgage'
p1492
I1
sS'farmers'
p1493
I4
sS'ways'
p1494
I2
sS'harvey'
p1495
I8
sS'review'
p1496
I4
sS'representatives'
p1497
I1
sS'forecast'
p1498
I1
sS'weapons'
p1499
I4
sS'underestimate'
p1500
I1
sS'outside'
p1501
I3
sS'un'
p1502
I28
sS'between'
p1503
I8
sS'mandarin'
p1504
I1
sS'import'
p1505
I1
sS'priming'
p1506
I1
sS'across'
p1507
I1
sS'caucus'
p1508
I1
sS'wouldve'
p1509
I1
sS'deletions'
p1510
I1
sS'notice'
p1511
I1
sS'infrastructure'
p1512
I2
sS'jobs'
p1513
I5
sS'vertical'
p1514
I1
sS'legitimacy'
p1515
I1
sS'deliver'
p1516
I3
sS'screen'
p1517
I1
sS'kahn'
p1518
I2
sS'points'
p1519
I2
sS'jr'
p1520
I12
sS'killing'
p1521
I1
sS'blame'
p1522
I4
sS'sacked'
p1523
I1
sS'spare'
p1524
I1
sS'jets'
p1525
I1
sS'article'
p1526
I1
sS'cities'
p1527
I3
sS'come'
p1528
I2
sS'kirsten'
p1529
I1
sS'undermine'
p1530
I2
sS'zoellick'
p1531
I1
sS'jfk'
p1532
I6
sS'reaction'
p1533
I2
sS'mans'
p1534
I1
sS'crawl'
p1535
I1
sS'many'
p1536
I3
sS'region'
p1537
I1
sS'trades'
p1538
I1
sS'quiet'
p1539
I1
sS'blasts'
p1540
I11
sS'tour'
p1541
I7
sS'takeover'
p1542
I1
sS'comey'
p1543
I31
sS'senator'
p1544
I8
sS'holders'
p1545
I2
sS'comes'
p1546
I2
sS'deported'
p1547
I1
sS'6'
p1548
I1
sS'directs'
p1549
I1
sS'mandate'
p1550
I1
sS'football'
p1551
I1
sS'mccain'
p1552
I3
sS'terminally'
p1553
I1
sS'61'
p1554
I1
sS'grants'
p1555
I1
sS'anti'
p1556
I17
sS'learning'
p1557
I1
sS'approval'
p1558
I4
sS'cancel'
p1559
I1
sS'bizarre'
p1560
I1
sS'poll'
p1561
I3
sS'nicole'
p1562
I1
sS'considering'
p1563
I5
sS'late'
p1564
I1
sS'arts'
p1565
I1
sS'trolling'
p1566
I1
sS'howard'
p1567
I1
sS'stretch'
p1568
I1
sS'west'
p1569
I8
sS'informed'
p1570
I1
sS'vacation'
p1571
I1
sS'mark'
p1572
I2
sS'dangers'
p1573
I1
sS'billionaires'
p1574
I1
sS'escalates'
p1575
I1
sS'schoolboy'
p1576
I1
sS'wants'
p1577
I14
sS'charlottesville'
p1578
I14
sS'robbed'
p1579
I1
sS'resistance'
p1580
I2
sS'andrew'
p1581
I3
sS'wounds'
p1582
I1
sS'mocking'
p1583
I2
sS'stabs'
p1584
I1
sS'dramatic'
p1585
I1
sS'wake'
p1586
I5
sS'protections'
p1587
I2
sS'declaration'
p1588
I1
sS'suspected'
p1589
I2
sS'careful'
p1590
I1
sS'buoys'
p1591
I1
sS'former'
p1592
I15
sS'paying'
p1593
I1
sS'consultant'
p1594
I1
sS'mount'
p1595
I1
sS'polls'
p1596
I4
sS'legitimise'
p1597
I1
sS'voldemort'
p1598
I1
sS'arnold'
p1599
I1
sS'w'
p1600
I3
sS'crowley'
p1601
I1
sS'associates'
p1602
I1
sS'policies'
p1603
I9
sS'situation'
p1604
I2
sS'spotlight'
p1605
I1
sS'bathrooms'
p1606
I1
sS'zenith'
p1607
I1
sS'engaged'
p1608
I1
sS'telephone'
p1609
I1
sS'taiwans'
p1610
I1
sS'middle'
p1611
I12
sS'pleads'
p1612
I1
sS'embrace'
p1613
I1
sS'minds'
p1614
I1
sS'affected'
p1615
I2
sS'fame'
p1616
I2
sS'worry'
p1617
I1
sS'intense'
p1618
I1
sS'psychopath'
p1619
I1
sS'pay'
p1620
I5
sS'bowl'
p1621
I1
sS'confidant'
p1622
I1
sS'same'
p1623
I1
sS'shifts'
p1624
I1
sS'inquiry'
p1625
I3
sS'angered'
p1626
I1
sS'otto'
p1627
I1
sS'week'
p1628
I20
sS'putin'
p1629
I21
sS'applaud'
p1630
I1
sS'boosted'
p1631
I1
sS'drives'
p1632
I1
sS'cheers'
p1633
I1
sS'running'
p1634
I6
sS'fruit'
p1635
I1
sS'statue'
p1636
I1
sS'semitic'
p1637
I1
sS'changing'
p1638
I1
sS'totally'
p1639
I2
sS'mentally'
p1640
I1
sS'pennsylvania'
p1641
I1
sS'constitutional'
p1642
I1
sS'animatronic'
p1643
I1
sS'without'
p1644
I2
sS'relief'
p1645
I2
sS'very'
p1646
I4
sS'bodies'
p1647
I1
sS'charged'
p1648
I1
sS'gdp'
p1649
I2
sS'summer'
p1650
I1
sS'pakistan'
p1651
I1
sS'being'
p1652
I3
sS'tip'
p1653
I1
sS'actions'
p1654
I2
sS'mistrust'
p1655
I1
sS'tasmanian'
p1656
I1
sS'violent'
p1657
I3
sS'kill'
p1658
I1
sS'intensifying'
p1659
I1
sS'baldwin'
p1660
I4
sS'kneeling'
p1661
I2
sS'weekly'
p1662
I3
sS'blow'
p1663
I1
sS'announcement'
p1664
I5
sS'death'
p1665
I3
sS'abortions'
p1666
I1
sS'kathy'
p1667
I1
sS'feminist'
p1668
I1
sS'thinking'
p1669
I2
sS'blog'
p1670
I3
sS'4'
p1671
I1
sS'role'
p1672
I1
sS'poised'
p1673
I1
sS'momentum'
p1674
I1
sS'real'
p1675
I3
sS'bernardi'
p1676
I1
sS'schwarzenegger'
p1677
I1
sS'rules'
p1678
I5
sS'papers'
p1679
I1
sS'mow'
p1680
I1
sS'virginia'
p1681
I2
sS'unveil'
p1682
I1
sS'early'
p1683
I2
sS'inflation'
p1684
I2
sS'pop'
p1685
I2
sS'symbolism'
p1686
I2
sS'using'
p1687
I2
sS'walk'
p1688
I2
sS'disappointed'
p1689
I1
sS'intel'
p1690
I2
sS'endorses'
p1691
I1
sS'serves'
p1692
I1
sS'roll'
p1693
I1
sS'facing'
p1694
I2
sS'audience'
p1695
I1
sS'maker'
p1696
I1
sS't'
p1697
I1
sS'tower'
p1698
I4
sS'robbers'
p1699
I1
sS'shunned'
p1700
I1
sS'debut'
p1701
I1
sS'cisco'
p1702
I1
sS'witchcraft'
p1703
I1
sS'pacific'
p1704
I3
sS'chuck'
p1705
I1
sS'oscars'
p1706
I1
sS'loyalty'
p1707
I1
sS'respect'
p1708
I1
sS'thinks'
p1709
I2
sS'axing'
p1710
I1
sS'prosecutor'
p1711
I1
sS'caribbean'
p1712
I1
sS'intensifies'
p1713
I1
sS'await'
p1714
I1
sS'henderson'
p1715
I1
sS'recorded'
p1716
I1
sS'legal'
p1717
I6
sS'conservative'
p1718
I7
sS'critical'
p1719
I2
sS'exit'
p1720
I3
sS'deficit'
p1721
I1
sS'statements'
p1722
I1
sS'aussie'
p1723
I3
sS'quitting'
p1724
I1
sS'knife'
p1725
I1
sS'mcfarland'
p1726
I1
sS'londons'
p1727
I1
sS'outage'
p1728
I1
sS'assembly'
p1729
I1
sS'power'
p1730
I8
sS'quit'
p1731
I3
sS'populists'
p1732
I1
sS'each'
p1733
I1
sS'broker'
p1734
I3
sS'broken'
p1735
I2
sS'qna'
p1736
I2
sS'barrie'
p1737
I1
sS'thailand'
p1738
I1
sS'prepared'
p1739
I1
sS'throw'
p1740
I1
sS'wades'
p1741
I1
sS'stone'
p1742
I2
sS'package'
p1743
I1
sS'of'
p1744
I186
sS'industry'
p1745
I3
sS'violence'
p1746
I2
sS'discussed'
p1747
I1
sS'farhadi'
p1748
I1
sS'stand'
p1749
I4
sS'underway'
p1750
I1
sS'mixed'
p1751
I3
sS'discusses'
p1752
I2
sS'deranged'
p1753
I2
sS'or'
p1754
I7
sS'road'
p1755
I1
sS'op'
p1756
I1
sS'outlook'
p1757
I2
sS'lands'
p1758
I1
sS'protests'
p1759
I15
sS'fundraising'
p1760
I2
sS'weighs'
p1761
I1
sS'communication'
p1762
I1
sS'image'
p1763
I1
sS'skilled'
p1764
I1
sS'ucla'
p1765
I2
sS'vigil'
p1766
I1
sS'accounts'
p1767
I2
sS'cent'
p1768
I1
sS'homeless'
p1769
I1
sS'parties'
p1770
I1
sS'wade'
p1771
I1
sS'jerusalem'
p1772
I15
sS'your'
p1773
I3
sS'legacy'
p1774
I1
sS'her'
p1775
I8
sS'hes'
p1776
I4
sS'there'
p1777
I3
sS'alleged'
p1778
I1
sS'sides'
p1779
I3
sS'taunts'
p1780
I1
sS'reinvigorates'
p1781
I1
sS'racist'
p1782
I3
sS'low'
p1783
I5
sS'lot'
p1784
I2
sS'decisive'
p1785
I1
sS'valley'
p1786
I1
sS'assumes'
p1787
I1
sS'morrison'
p1788
I1
sS'hookers'
p1789
I1
sS'media'
p1790
I19
sS'mars'
p1791
I1
sS'pleased'
p1792
I2
sS'delayed'
p1793
I1
sS'strikes'
p1794
I2
sS'cabinet'
p1795
I3
sS'agl'
p1796
I1
sS'gore'
p1797
I1
sS'hurricanes'
p1798
I1
sS'pitched'
p1799
I1
sS'trying'
p1800
I2
sS'with'
p1801
I104
sS'buying'
p1802
I1
sS'pull'
p1803
I1
sS'hire'
p1804
I2
sS'loyalists'
p1805
I2
sS'rage'
p1806
I1
sS'unveils'
p1807
I2
sS'sacks'
p1808
I2
sS'emissions'
p1809
I1
sS'agree'
p1810
I1
sS'attacked'
p1811
I1
sS'taylor'
p1812
I1
sS'leaked'
p1813
I4
sS'johnny'
p1814
I2
sS'hearted'
p1815
I1
sS'mounting'
p1816
I1
sS'certain'
p1817
I1
sS'al'
p1818
I2
sS'deep'
p1819
I1
sS'an'
p1820
I5
sS'britain'
p1821
I3
sS'intro'
p1822
I1
sS'at'
p1823
I75
sS'pen'
p1824
I1
sS'politics'
p1825
I5
sS'mover'
p1826
I1
sS'syrian'
p1827
I3
sS'bishop'
p1828
I3
sS'again'
p1829
I8
sS'want'
p1830
I2
sS'personnel'
p1831
I2
sS'lashing'
p1832
I1
sS'rebuts'
p1833
I1
sS'rubber'
p1834
I1
sS'5'
p1835
I3
sS'you'
p1836
I8
sS'trash'
p1837
I1
sS'immunity'
p1838
I1
sS'poor'
p1839
I1
sS'requested'
p1840
I2
sS'congress'
p1841
I16
sS'impersonation'
p1842
I1
sS'students'
p1843
I1
sS'includes'
p1844
I1
sS'podium'
p1845
I1
sS'important'
p1846
I2
sS'coverage'
p1847
I3
sS'chris'
p1848
I3
sS'stocks'
p1849
I4
sS'stakes'
p1850
I2
sS'building'
p1851
I1
sS'bilateral'
p1852
I1
sS'calls'
p1853
I24
sS'wife'
p1854
I1
sS'odds'
p1855
I1
sS'97yo'
p1856
I1
sS'repay'
p1857
I2
sS'mass'
p1858
I2
sS'adam'
p1859
I1
sS'directory'
p1860
I1
sS'signals'
p1861
I1
sS'overseas'
p1862
I4
sS'resolution'
p1863
I1
sS'wielding'
p1864
I2
sS'minister'
p1865
I2
sS'represent'
p1866
I1
sS'all'
p1867
I12
sS'pheasant'
p1868
I1
sS'forget'
p1869
I2
sS'chinese'
p1870
I7
sS'ali'
p1871
I1
sS'groundwork'
p1872
I1
sS'caused'
p1873
I1
sS'forbidden'
p1874
I1
sS'lack'
p1875
I3
sS'dollar'
p1876
I6
sS'deadline'
p1877
I1
sS'talks'
p1878
I17
sS'lacy'
p1879
I1
sS'children'
p1880
I4
sS'jerome'
p1881
I3
sS'griffin'
p1882
I1
sS'homage'
p1883
I1
sS'tv'
p1884
I1
sS'themed'
p1885
I1
sS'redecorate'
p1886
I1
sS'opportunities'
p1887
I2
sS'riots'
p1888
I1
sS'to'
p1889
I413
sS'program'
p1890
I1
sS'spain'
p1891
I1
sS'health'
p1892
I12
sS'pledges'
p1893
I2
sS'case'
p1894
I4
sS'worse'
p1895
I4
sS'manafort'
p1896
I5
sS'sitting'
p1897
I1
sS'far'
p1898
I5
sS'grindr'
p1899
I1
sS'fat'
p1900
I1
sS'fabricated'
p1901
I2
sS'simpsons'
p1902
I1
sS'wiretap'
p1903
I1
sS'rogue'
p1904
I1
sS'worst'
p1905
I3
sS'fall'
p1906
I6
sS'labor'
p1907
I1
sS'leads'
p1908
I1
sS'moines'
p1909
I1
sS'venezuela'
p1910
I3
sS'list'
p1911
I1
sS'joined'
p1912
I1
sS'sliding'
p1913
I1
sS'scrapping'
p1914
I1
sS'adjust'
p1915
I1
sS'saudi'
p1916
I5
sS'liars'
p1917
I1
sS'small'
p1918
I1
sS'conflicted'
p1919
I1
sS'mosul'
p1920
I1
sS'instagram'
p1921
I1
sS'fence'
p1922
I3
sS'streets'
p1923
I3
sS'past'
p1924
I2
sS'rate'
p1925
I2
sS'lawyer'
p1926
I5
sS'pass'
p1927
I1
sS'nbc'
p1928
I3
sS'further'
p1929
I3
sS'nba'
p1930
I2
sS'gm'
p1931
I1
sS'belief'
p1932
I1
sS'what'
p1933
I44
sS'defence'
p1934
I8
sS'abe'
p1935
I4
sS'richard'
p1936
I4
sS'cast'
p1937
I1
sS'deeply'
p1938
I1
sS'sellout'
p1939
I1
sS'anniversary'
p1940
I1
sS'schumer'
p1941
I1
sS'attitudes'
p1942
I1
sS'scientists'
p1943
I2
sS'corker'
p1944
I5
sS'tribute'
p1945
I2
sS'public'
p1946
I5
sS'turmoil'
p1947
I2
sS'full'
p1948
I6
sS'iran'
p1949
I13
sS'recruits'
p1950
I2
sS'murkier'
p1951
I1
sS'counselor'
p1952
I1
sS'lobbyist'
p1953
I1
sS'theresa'
p1954
I2
sS'portrays'
p1955
I1
sS'behaviour'
p1956
I1
sS'red'
p1957
I1
sS'suicide'
p1958
I1
sS'investigating'
p1959
I2
sS'november'
p1960
I2
sS'strong'
p1961
I3
sS'backlash'
p1962
I4
sS'speeches'
p1963
I1
sS'bible'
p1964
I1
sS'ahead'
p1965
I14
sS'inspired'
p1966
I1
sS'allows'
p1967
I3
sS'popes'
p1968
I1
sS'soldier'
p1969
I1
sS'airport'
p1970
I1
sS'disputes'
p1971
I1
sS'uncharted'
p1972
I1
sS'pick'
p1973
I13
sS'action'
p1974
I9
sS'cup'
p1975
I1
sS'depart'
p1976
I1
sS'family'
p1977
I5
sS'suddenly'
p1978
I1
sS'father'
p1979
I2
sS'apologises'
p1980
I5
sS'aspi'
p1981
I1
sS'ask'
p1982
I4
sS'jrs'
p1983
I4
sS'globes'
p1984
I2
sS'warmbiers'
p1985
I1
sS'rican'
p1986
I1
sS'teach'
p1987
I1
sS'attendance'
p1988
I2
sS'takes'
p1989
I13
sS'two'
p1990
I9
sS'indias'
p1991
I1
sS'demeaned'
p1992
I1
sS'correspondents'
p1993
I3
sS'taken'
p1994
I3
sS'h1b'
p1995
I1
sS'markets'
p1996
I23
sS'hegemony'
p1997
I1
sS'more'
p1998
I15
sS'flat'
p1999
I2
sS'israel'
p2000
I11
sS'awards'
p2001
I3
sS'knows'
p2002
I1
sS'regrettable'
p2003
I1
sS'site'
p2004
I1
sS'admissions'
p2005
I1
sS'excuse'
p2006
I1
sS'floyd'
p2007
I1
sS'20000'
p2008
I1
sS'cremated'
p2009
I1
sS'arabella'
p2010
I1
sS'edel'
p2011
I1
sS'debates'
p2012
I1
sS'vladimir'
p2013
I5
sS'science'
p2014
I1
sS'des'
p2015
I1
sS'remain'
p2016
I1
sS'billiton'
p2017
I1
sS'nine'
p2018
I2
sS'v'
p2019
I2
sS'abandon'
p2020
I2
sS'dea'
p2021
I1
sS'male'
p2022
I1
sS'evangelicals'
p2023
I4
sS'history'
p2024
I5
sS'beautiful'
p2025
I2
sS'compare'
p2026
I1
sS'finland'
p2027
I1
sS'embarrassing'
p2028
I1
sS'dual'
p2029
I1
sS'pushes'
p2030
I3
sS'brown'
p2031
I1
sS'share'
p2032
I5
sS'accept'
p2033
I3
sS'boycott'
p2034
I1
sS'states'
p2035
I14
sS'biden'
p2036
I1
sS'confirmation'
p2037
I1
sS'numbers'
p2038
I3
sS'sense'
p2039
I1
sS'lacks'
p2040
I1
sS'information'
p2041
I6
sS'needs'
p2042
I5
sS'court'
p2043
I25
sS'abc'
p2044
I2
sS'awkward'
p2045
I2
sS'dismissed'
p2046
I1
sS'showmanship'
p2047
I1
sS'maps'
p2048
I1
sS'glowing'
p2049
I1
sS'perry'
p2050
I1
sS'hugs'
p2051
I2
sS'dismisses'
p2052
I5
sS'panned'
p2053
I1
sS'mould'
p2054
I1
sS'sandwich'
p2055
I1
sS'plans'
p2056
I11
sS'charms'
p2057
I1
sS'uprising'
p2058
I1
sS'advice'
p2059
I1
sS'greenwald'
p2060
I1
sS'sceptic'
p2061
I1
sS'breitbart'
p2062
I2
sS'plane'
p2063
I1
sS'studies'
p2064
I1
sS'coming'
p2065
I1
sS'ethics'
p2066
I2
sS'response'
p2067
I6
sS'a'
p2068
I93
sS'short'
p2069
I3
sS'452000'
p2070
I1
sS'tweeting'
p2071
I1
sS'coal'
p2072
I4
sS'lgbt'
p2073
I1
sS'threatens'
p2074
I9
sS'banks'
p2075
I1
sS'facebook'
p2076
I1
sS'lasting'
p2077
I1
sS'dream'
p2078
I2
sS'playing'
p2079
I1
sS'mexican'
p2080
I2
sS'help'
p2081
I2
sS'swamped'
p2082
I1
sS'emmanuel'
p2083
I2
sS'dons'
p2084
I1
sS'setback'
p2085
I2
sS'trade'
p2086
I30
sS'held'
p2087
I2
sS'isnt'
p2088
I2
sS'embassy'
p2089
I2
sS'scott'
p2090
I3
sS'committee'
p2091
I3
sS'signs'
p2092
I12
sS'hell'
p2093
I1
sS'mcdonalds'
p2094
I3
sS'suffer'
p2095
I1
sS'its'
p2096
I3
sS'roots'
p2097
I1
sS'developer'
p2098
I1
sS'style'
p2099
I2
sS'20'
p2100
I1
sS'nordstrom'
p2101
I3
sS'22'
p2102
I1
sS'actually'
p2103
I2
sS'smaka'
p2104
I1
sS'parts'
p2105
I5
sS'pena'
p2106
I4
sS'stephen'
p2107
I3
sS'speech'
p2108
I28
sS'responders'
p2109
I3
sS'might'
p2110
I3
sS'alter'
p2111
I1
sS'ally'
p2112
I1
sS'mulvaney'
p2113
I1
sS'colleague'
p2114
I1
sS'hurting'
p2115
I1
sS'good'
p2116
I6
sS'return'
p2117
I1
sS'manila'
p2118
I2
sS'abandons'
p2119
I1
sS'seeking'
p2120
I2
sS'ceo'
p2121
I4
sS'petraeus'
p2122
I1
sS'blumenthal'
p2123
I1
sS'wolpe'
p2124
I1
sS'starbucks'
p2125
I1
sS'milestone'
p2126
I1
sS'sweeping'
p2127
I2
sS'attending'
p2128
I1
sS'bigger'
p2129
I1
sS'easily'
p2130
I1
sS'hails'
p2131
I2
sS'capability'
p2132
I1
sS'reassures'
p2133
I1
sS'found'
p2134
I1
sS'shocking'
p2135
I1
sS'reactions'
p2136
I1
sS'shock'
p2137
I3
sS'neil'
p2138
I4
sS'mental'
p2139
I3
sS'house'
p2140
I49
sS'energy'
p2141
I2
sS'hard'
p2142
I4
sS'haley'
p2143
I2
sS'idea'
p2144
I1
sS'used'
p2145
I1
sS'ball'
p2146
I2
sS'expect'
p2147
I2
sS'gfc'
p2148
I1
sS'portland'
p2149
I2
sS'beyond'
p2150
I4
sS'insurance'
p2151
I1
sS'really'
p2152
I6
sS'deals'
p2153
I3
sS'dominates'
p2154
I2
sS'funding'
p2155
I3
sS'candlelight'
p2156
I1
sS'robert'
p2157
I5
sS'since'
p2158
I5
sS'testify'
p2159
I4
sS'acting'
p2160
I3
sS'trudeau'
p2161
I2
sS'dominated'
p2162
I2
sS'print'
p2163
I1
sS'deposed'
p2164
I1
sS'issue'
p2165
I1
sS'cuddle'
p2166
I1
sS'bully'
p2167
I1
sS'1920s'
p2168
I1
sS'asx'
p2169
I5
sS'basketball'
p2170
I1
sS'members'
p2171
I1
sS'impeached'
p2172
I2
sS'put'
p2173
I3
sS'terrorist'
p2174
I1
sS'reprising'
p2175
I1
sS'rises'
p2176
I2
sS'beginning'
p2177
I1
sS'pyne'
p2178
I2
sS'jew'
p2179
I1
sS'thrown'
p2180
I1
sS'director'
p2181
I13
sS'owners'
p2182
I1
sS'bragged'
p2183
I1
sS'service'
p2184
I2
sS'launch'
p2185
I2
sS'worth'
p2186
I1
sS'lego'
p2187
I1
sS'terrible'
p2188
I1
sS'americas'
p2189
I3
sS'american'
p2190
I9
sS'edges'
p2191
I1
sS'expecting'
p2192
I1
sS'threat'
p2193
I9
sS'scouts'
p2194
I6
sS'syria'
p2195
I18
sS'fallen'
p2196
I2
sS'lawsuits'
p2197
I1
sS'major'
p2198
I11
sS'dont'
p2199
I3
sS'protectionist'
p2200
I3
sS'feel'
p2201
I1
sS'guam'
p2202
I4
sS'sydney'
p2203
I1
sS'number'
p2204
I1
sS'moab'
p2205
I1
sS'sympathy'
p2206
I1
sS'armitage'
p2207
I1
sS'brave'
p2208
I1
sS'done'
p2209
I4
sS'touting'
p2210
I2
sS'miss'
p2211
I2
sS'passes'
p2212
I1
sS'afghan'
p2213
I2
sS'scathing'
p2214
I1
sS'together'
p2215
I3
sS'swipe'
p2216
I1
sS'threatening'
p2217
I1
sS'revive'
p2218
I1
sS'regulation'
p2219
I1
sS'station'
p2220
I1
sS'statement'
p2221
I5
sS'handshakes'
p2222
I3
sS'store'
p2223
I2
sS'mini'
p2224
I1
sS'pipelines'
p2225
I1
sS'option'
p2226
I2
sS'relationship'
p2227
I9
sS'behind'
p2228
I5
sS'hotel'
p2229
I1
sS'immediate'
p2230
I1
sS'part'
p2231
I4
sS'jordan'
p2232
I1
sS'signaling'
p2233
I1
sS'scandals'
p2234
I2
sS'trolls'
p2235
I1
sS'believe'
p2236
I3
sS'carnage'
p2237
I1
sS'obama'
p2238
I34
sS'king'
p2239
I1
sS'kind'
p2240
I1
sS'iranian'
p2241
I1
sS'dossier'
p2242
I2
sS'defends'
p2243
I21
sS'charges'
p2244
I1
sS'greg'
p2245
I2
sS'2020'
p2246
I2
sS'risks'
p2247
I1
sS'hyde'
p2248
I1
sS'soaring'
p2249
I1
sS'treated'
p2250
I2
sS'declare'
p2251
I2
sS'liveris'
p2252
I3
sS'nominee'
p2253
I4
sS'wasnt'
p2254
I2
sS'imports'
p2255
I1
sS'fights'
p2256
I1
sS'abetz'
p2257
I1
sS'bhp'
p2258
I2
sS'confirms'
p2259
I8
sS'orders'
p2260
I9
sS'brooks'
p2261
I1
sS'sell'
p2262
I2
sS'ratings'
p2263
I3
sS'hopelessly'
p2264
I1
sS'assails'
p2265
I1
sS'self'
p2266
I1
sS'commemorates'
p2267
I1
sS'caesar'
p2268
I1
sS'machado'
p2269
I1
sS'build'
p2270
I4
sS'aggravating'
p2271
I1
sS'interfered'
p2272
I1
sS'trumplandia'
p2273
I1
sS'play'
p2274
I2
sS'towards'
p2275
I1
sS'haward'
p2276
I1
sS'retired'
p2277
I1
sS'afghanistan'
p2278
I7
sS'approves'
p2279
I2
sS'took'
p2280
I1
sS'react'
p2281
I9
sS'most'
p2282
I5
sS'plan'
p2283
I15
sS'nothing'
p2284
I1
sS'approved'
p2285
I1
sS'appear'
p2286
I1
sS'seize'
p2287
I1
sS'mobile'
p2288
I1
sS'clear'
p2289
I1
sS'cover'
p2290
I2
sS'charitable'
p2291
I1
sS'barred'
p2292
I1
sS'clean'
p2293
I1
sS'tpp'
p2294
I16
sS'weigh'
p2295
I5
sS'parody'
p2296
I1
sS'attacking'
p2297
I1
sS'lying'
p2298
I1
sS'sector'
p2299
I2
sS'golf'
p2300
I3
sS'phenomenon'
p2301
I1
sS'frances'
p2302
I1
sS'denuclearisation'
p2303
I1
sS'wailing'
p2304
I1
sS'celebrities'
p2305
I1
sS'hugging'
p2306
I1
sS'defended'
p2307
I1
sS'businesses'
p2308
I1
sS'havoc'
p2309
I1
sS'jared'
p2310
I3
sS'headlines'
p2311
I2
sS'minhaj'
p2312
I1
sS'fine'
p2313
I4
sS'find'
p2314
I3
sS'impact'
p2315
I3
sS'gilded'
p2316
I1
sS'giant'
p2317
I2
sS'justice'
p2318
I2
sS'nervous'
p2319
I4
sS'writes'
p2320
I2
sS'original'
p2321
I1
sS'reels'
p2322
I1
sS'penalty'
p2323
I1
sS'bakery'
p2324
I1
sS'flights'
p2325
I1
sS'captures'
p2326
I1
sS'joseph'
p2327
I2
sS'cuba'
p2328
I3
sS'apprentice'
p2329
I4
sS'discuss'
p2330
I2
sS'hip'
p2331
I1
sS'sacking'
p2332
I2
sS'his'
p2333
I28
sS'hit'
p2334
I4
sS'vandalized'
p2335
I1
sS'bend'
p2336
I1
sS'zambia'
p2337
I1
sS'alicia'
p2338
I1
sS'feels'
p2339
I1
sS'international'
p2340
I1
sS'during'
p2341
I7
sS'him'
p2342
I11
sS'restart'
p2343
I1
sS'enemy'
p2344
I2
sS'bet'
p2345
I1
sS'cry'
p2346
I1
sS'banking'
p2347
I2
sS'unimagineable'
p2348
I1
sS'withdrawal'
p2349
I4
sS'x'
p2350
I1
sS'ivanka'
p2351
I12
sS'set'
p2352
I4
sS'art'
p2353
I2
sS'rocked'
p2354
I1
sS'dump'
p2355
I4
sS'creator'
p2356
I2
sS'govt'
p2357
I1
sS'intelligence'
p2358
I5
sS'activists'
p2359
I1
sS'scepticism'
p2360
I1
sS'sex'
p2361
I1
sS'see'
p2362
I7
sS'defense'
p2363
I1
sS'dumb'
p2364
I1
sS'are'
p2365
I10
sS'sea'
p2366
I6
sS'usyd'
p2367
I1
sS'close'
p2368
I2
sS'retweet'
p2369
I1
sS'locals'
p2370
I2
sS'project'
p2371
I1
sS'practice'
p2372
I1
sS'workers'
p2373
I1
sS'threats'
p2374
I3
sS'chinas'
p2375
I1
sS'expert'
p2376
I4
sS'pictures'
p2377
I1
sS'leg'
p2378
I1
sS'electoral'
p2379
I3
sS'heading'
p2380
I2
sS'fans'
p2381
I3
sS'won'
p2382
I1
sS'mcmaster'
p2383
I3
sS'probably'
p2384
I2
sS'burned'
p2385
I1
sS'corruption'
p2386
I1
sS'europe'
p2387
I2
sS'korea'
p2388
I79
sS'tirade'
p2389
I3
sS'intimidated'
p2390
I1
sS'attention'
p2391
I1
sS'turnbulls'
p2392
I3
sS'renews'
p2393
I1
sS'incident'
p2394
I1
sS'succeed'
p2395
I1
sS'scuttle'
p2396
I1
sS'opposition'
p2397
I1
sS'both'
p2398
I4
sS'last'
p2399
I4
sS'secrets'
p2400
I1
sS'ousted'
p2401
I1
sS'bowie'
p2402
I1
sS'foreign'
p2403
I6
sS'tweeted'
p2404
I1
sS'tightens'
p2405
I1
sS'bond'
p2406
I1
sS'approve'
p2407
I1
sS'load'
p2408
I1
sS'childhood'
p2409
I1
sS'words'
p2410
I2
sS'hackers'
p2411
I1
sS'jeff'
p2412
I7
sS'sky'
p2413
I1
sS'uncivil'
p2414
I1
sS'improper'
p2415
I1
sS'church'
p2416
I2
sS'sees'
p2417
I1
sS'semitism'
p2418
I1
sS'mission'
p2419
I2
sS'belt'
p2420
I1
sS'decline'
p2421
I1
sS'devil'
p2422
I1
sS'arsenal'
p2423
I1
sS'perspectives'
p2424
I1
sS'satire'
p2425
I3
sS'due'
p2426
I1
sS'strategy'
p2427
I8
sS'secret'
p2428
I2
sS'dropping'
p2429
I1
sS'extends'
p2430
I1
sS'meeting'
p2431
I32
sS'pm'
p2432
I6
sS'firm'
p2433
I1
sS'sanders'
p2434
I2
sS'lived'
p2435
I1
sS'assassinating'
p2436
I1
sS'fire'
p2437
I6
sS'scaramuccis'
p2438
I1
sS'gas'
p2439
I1
sS'remark'
p2440
I1
sS'anthony'
p2441
I6
sS'fund'
p2442
I1
sS'lives'
p2443
I2
sS'demand'
p2444
I3
sS'prices'
p2445
I1
sS'insiders'
p2446
I1
sS'likened'
p2447
I1
sS'pact'
p2448
I3
sS'replaces'
p2449
I2
sS'politician'
p2450
I1
sS'look'
p2451
I6
sS'judicial'
p2452
I2
sS'straight'
p2453
I1
sS'bill'
p2454
I13
sS'budget'
p2455
I10
sS'governor'
p2456
I2
sS'rope'
p2457
I1
sS'deferred'
p2458
I1
sS'while'
p2459
I3
sS'involved'
p2460
I1
sS'transcripts'
p2461
I1
sS'shake'
p2462
I2
sS'pack'
p2463
I1
sS'shortened'
p2464
I1
sS'lodges'
p2465
I1
sS'voters'
p2466
I8
sS'backing'
p2467
I2
sS'antithesis'
p2468
I1
sS'disappointing'
p2469
I1
sS'itself'
p2470
I1
sS'lodged'
p2471
I1
sS'owes'
p2472
I1
sS'ready'
p2473
I4
sS'limit'
p2474
I1
sS'rid'
p2475
I1
sS'around'
p2476
I1
sS'decor'
p2477
I1
sS'governing'
p2478
I1
sS'italy'
p2479
I1
sS'shirt'
p2480
I1
sS'grant'
p2481
I1
sS'shorten'
p2482
I3
sS'read'
p2483
I1
sS'shackle'
p2484
I1
sS'complaints'
p2485
I1
sS'grand'
p2486
I1
sS'daughters'
p2487
I1
sS'higher'
p2488
I4
sS'arrives'
p2489
I8
sS'lawyers'
p2490
I2
sS'bonus'
p2491
I1
sS'restraint'
p2492
I1
sS'island'
p2493
I1
sS'negotiate'
p2494
I1
sS'alert'
p2495
I1
sS'husbands'
p2496
I1
sS'moving'
p2497
I3
sS'user'
p2498
I1
sS'yuan'
p2499
I1
sS'residents'
p2500
I1
sS'infamous'
p2501
I2
sS'kurdish'
p2502
I1
sS'task'
p2503
I1
sS'try'
p2504
I1
sS'spent'
p2505
I1
sS'analysis'
p2506
I9
sS'picks'
p2507
I7
sS'person'
p2508
I4
sS'2gb'
p2509
I1
sS'unannounced'
p2510
I1
sS'flags'
p2511
I2
sS'withdraw'
p2512
I1
sS'kelly'
p2513
I5
sS'entry'
p2514
I1
sS'distances'
p2515
I2
sS'exploits'
p2516
I1
sS'settlements'
p2517
I3
sS'isolated'
p2518
I1
sS'repealing'
p2519
I1
sS'openly'
p2520
I1
sS'whitson'
p2521
I1
sS'questions'
p2522
I5
sS'world'
p2523
I24
sS'vigilant'
p2524
I1
sS'elect'
p2525
I4
sS'taiwan'
p2526
I5
sS'cut'
p2527
I6
sS'providing'
p2528
I1
sS'conclusions'
p2529
I1
sS'lady'
p2530
I4
sS'admission'
p2531
I1
sS'deputy'
p2532
I1
sS'barack'
p2533
I8
sS'eslake'
p2534
I2
sS'deliberately'
p2535
I1
sS'homeland'
p2536
I1
sS'presidents'
p2537
I3
sS'luhrmann'
p2538
I1
sS'surprised'
p2539
I1
sS'hater'
p2540
I1
sS'lampooning'
p2541
I1
sS'indonesian'
p2542
I2
sS'australia'
p2543
I34
sS'march'
p2544
I5
sS'emergency'
p2545
I2
sS'demands'
p2546
I1
sS'big'
p2547
I9
sS'rebound'
p2548
I1
sS'advocate'
p2549
I2
sS'matters'
p2550
I3
sS'jibe'
p2551
I1
sS'stunned'
p2552
I1
sS'formal'
p2553
I1
sS'75th'
p2554
I2
sS'egged'
p2555
I1
sS'shaped'
p2556
I1
sS'according'
p2557
I2
sS'signal'
p2558
I1
sS'heart'
p2559
I1
sS'communications'
p2560
I2
sS'individuals'
p2561
I1
sS'surging'
p2562
I1
sS'popular'
p2563
I2
sS'weiner'
p2564
I1
sS'foolish'
p2565
I1
sS'disorder'
p2566
I1
sS'sketch'
p2567
I1
sS'google'
p2568
I3
sS'parade'
p2569
I1
sS'jibes'
p2570
I1
sS'45th'
p2571
I1
sS'senate'
p2572
I10
sS'extremism'
p2573
I1
sS'some'
p2574
I5
sS'back'
p2575
I22
sS'impeach'
p2576
I1
sS'economic'
p2577
I6
sS'loser'
p2578
I1
sS'celebratory'
p2579
I1
sS'loses'
p2580
I2
sS'minefield'
p2581
I1
sS'delivered'
p2582
I2
sS'qatar'
p2583
I1
sS'flagging'
p2584
I1
sS'waxworks'
p2585
I1
sS'contacts'
p2586
I3
sS'decision'
p2587
I17
sS'hombres'
p2588
I1
sS'per'
p2589
I1
sS'thrilled'
p2590
I2
sS'lara'
p2591
I1
sS'slash'
p2592
I1
sS'epic'
p2593
I1
sS'payments'
p2594
I1
sS'be'
p2595
I59
sS'run'
p2596
I6
sS'lose'
p2597
I3
sS'agreement'
p2598
I6
sS'snake'
p2599
I1
sS'stem'
p2600
I1
sS'step'
p2601
I2
sS'santa'
p2602
I1
sS'refuses'
p2603
I3
sS'metaphor'
p2604
I2
sS'dictated'
p2605
I1
sS'by'
p2606
I51
sS'varghese'
p2607
I1
sS'unconfirmed'
p2608
I1
sS'faith'
p2609
I1
sS'pipeline'
p2610
I2
sS'cautious'
p2611
I2
sS'anything'
p2612
I2
sS'wore'
p2613
I1
sS'firing'
p2614
I3
sS'trucking'
p2615
I1
sS'melbourne'
p2616
I3
sS'range'
p2617
I1
sS'slams'
p2618
I13
sS'greets'
p2619
I1
sS'womens'
p2620
I3
sS'bluster'
p2621
I1
sS'block'
p2622
I3
sS'clinton'
p2623
I83
sS'shinzo'
p2624
I1
sS'resigns'
p2625
I2
sS'into'
p2626
I13
sS'shrugs'
p2627
I1
sS'nonsense'
p2628
I1
sS'framed'
p2629
I1
sS'appropriate'
p2630
I1
sS'lesson'
p2631
I1
sS'pentagon'
p2632
I3
sS'rolls'
p2633
I1
sS'nsw'
p2634
I2
sS'impressed'
p2635
I1
sS'vengeance'
p2636
I1
sS'spending'
p2637
I7
sS'question'
p2638
I1
sS'long'
p2639
I3
sS'taliban'
p2640
I1
sS'pharmaceuticals'
p2641
I1
sS'crackdown'
p2642
I2
sS'forward'
p2643
I3
sS'rinat'
p2644
I1
sS'keating'
p2645
I1
sS'translate'
p2646
I1
sS'scared'
p2647
I1
sS'spat'
p2648
I3
sS'files'
p2649
I4
sS'himself'
p2650
I2
sS'russias'
p2651
I1
sS'hawaiian'
p2652
I2
sS'driverless'
p2653
I1
sS'jewish'
p2654
I1
sS'dips'
p2655
I1
sS'memory'
p2656
I1
sS'slump'
p2657
I1
sS'immigration'
p2658
I22
sS'boys'
p2659
I1
sS'link'
p2660
I1
sS'repeatedly'
p2661
I1
sS'russian'
p2662
I14
sS'line'
p2663
I1
sS'syrians'
p2664
I1
sS'scales'
p2665
I1
sS'reworked'
p2666
I1
sS'cia'
p2667
I8
sS'trumptapes'
p2668
I1
sS'sounds'
p2669
I1
sS'up'
p2670
I28
sS'us'
p2671
I230
sS'stalking'
p2672
I1
sS'interventionist'
p2673
I2
sS'preemptive'
p2674
I1
sS'yellen'
p2675
I2
sS'uk'
p2676
I7
sS'highlight'
p2677
I1
sS'called'
p2678
I3
sS'uber'
p2679
I1
sS'ordered'
p2680
I1
sS'nationalist'
p2681
I1
sS'armstrong'
p2682
I1
sS'influence'
p2683
I2
sS'metals'
p2684
I1
sS'reopening'
p2685
I1
sS'warning'
p2686
I5
sS'home'
p2687
I8
sS'rally'
p2688
I15
sS'cafe'
p2689
I1
sS'takedown'
p2690
I1
sS'shipwreck'
p2691
I1
sS'sack'
p2692
I1
sS'thugs'
p2693
I1
sS'calm'
p2694
I1
sS'corners'
p2695
I1
sS'peace'
p2696
I5
sS'fears'
p2697
I4
sS'backs'
p2698
I3
sS'uncompliant'
p2699
I1
sS'freestyle'
p2700
I1
sS'coining'
p2701
I1
sS'actors'
p2702
I1
sS'becomes'
p2703
I2
sS'department'
p2704
I3
sS'condolence'
p2705
I1
sS'verrender'
p2706
I1
sS'nice'
p2707
I1
sS'draw'
p2708
I2
sS'channelling'
p2709
I1
sS'reportedly'
p2710
I2
sS'viral'
p2711
I2
sS'kt'
p2712
I1
sS'visits'
p2713
I11
sS'lucia'
p2714
I1
sS'regulations'
p2715
I3
sS'militants'
p2716
I2
sS'prepares'
p2717
I3
sS'hanson'
p2718
I3
sS'springsteen'
p2719
I3
sS'statesman'
p2720
I2
sS'fighter'
p2721
I1
sS'vice'
p2722
I2
sS'age'
p2723
I1
sS'backed'
p2724
I2
sS'constance'
p2725
I1
sS'feud'
p2726
I1
sS'summit'
p2727
I4
sS'agalarov'
p2728
I1
sS'rallies'
p2729
I3
sS'fresh'
p2730
I2
sS'having'
p2731
I1
sS'once'
p2732
I1
sS'essay'
p2733
I1
sS'watergate'
p2734
I3
sS'advisory'
p2735
I3
sS'results'
p2736
I4
sS'tested'
p2737
I1
sS'soften'
p2738
I2
sS'steve'
p2739
I9
sS'sanctuary'
p2740
I3
sS'stops'
p2741
I2
sS'go'
p2742
I3
sS'arpaio'
p2743
I2
sS'moon'
p2744
I3
sS'issues'
p2745
I5
sS'gold'
p2746
I1
sS'vietnamese'
p2747
I1
sS'appointee'
p2748
I1
sS'young'
p2749
I3
sS'send'
p2750
I5
sS'brzezinski'
p2751
I2
sS'retweets'
p2752
I2
sS'stable'
p2753
I1
sS'maryland'
p2754
I1
sS'charity'
p2755
I1
sS'sent'
p2756
I2
sS'stabbings'
p2757
I1
sS'queen'
p2758
I1
sS'rollback'
p2759
I1
sS'writeoff'
p2760
I1
sS'continues'
p2761
I7
sS'miners'
p2762
I3
sS'wave'
p2763
I1
sS'seizes'
p2764
I1
sS'putting'
p2765
I2
sS'chooses'
p2766
I1
sS'materialise'
p2767
I1
sS'telling'
p2768
I1
sS'assad'
p2769
I1
sS'nieto'
p2770
I4
sS'continued'
p2771
I1
sS'knight'
p2772
I1
sS'counselled'
p2773
I1
sS'f'
p2774
I2
sS'michael'
p2775
I13
sS'forbes'
p2776
I1
sS'ryan'
p2777
I6
sS'prototypes'
p2778
I1
sS'anxious'
p2779
I1
sS'race'
p2780
I8
sS'dealt'
p2781
I1
sS'severed'
p2782
I1
sS'challenge'
p2783
I4
sS'pleas'
p2784
I1
sS'victim'
p2785
I1
sS'pledge'
p2786
I1
sS'overshadows'
p2787
I1
sS'wrestling'
p2788
I2
sS'scientist'
p2789
I1
sS'video'
p2790
I8
sS'licenses'
p2791
I1
sS'makers'
p2792
I1
sS'spreading'
p2793
I1
sS'index'
p2794
I1
sS'staffers'
p2795
I1
sS'whitehouse'
p2796
I1
sS'plays'
p2797
I3
sS'business'
p2798
I16
sS'showcase'
p2799
I1
sS'giving'
p2800
I1
sS'anthem'
p2801
I3
sS'furth'
p2802
I1
sS'access'
p2803
I3
sS'experiment'
p2804
I1
sS'turnaround'
p2805
I1
sS'capital'
p2806
I6
sS'expresses'
p2807
I1
sS'bird'
p2808
I1
sS'nazis'
p2809
I2
sS'body'
p2810
I2
sS'hameed'
p2811
I1
sS'focuses'
p2812
I1
sS'led'
p2813
I1
sS'stance'
p2814
I5
sS'exchange'
p2815
I1
sS'commercial'
p2816
I1
sS'punch'
p2817
I3
sS'eminem'
p2818
I2
sS'save'
p2819
I1
sS'dressed'
p2820
I1
sS'let'
p2821
I1
sS'healing'
p2822
I1
sS'licence'
p2823
I1
sS'hobart'
p2824
I1
sS'sing'
p2825
I1
sS'scrapped'
p2826
I1
sS'invented'
p2827
I1
sS'extreme'
p2828
I1
sS'ukraine'
p2829
I2
sS'great'
p2830
I9
sS'trans'
p2831
I1
sS'weinstein'
p2832
I2
sS'survivor'
p2833
I1
sS'distressed'
p2834
I1
sS'withdrawing'
p2835
I4
sS'30'
p2836
I2
sS'shades'
p2837
I1
sS'35'
p2838
I2
sS'leaving'
p2839
I2
sS'suggests'
p2840
I2
sS'janus'
p2841
I1
sS'haitians'
p2842
I1
sS'jerusalems'
p2843
I1
sS'defeat'
p2844
I1
sS'opinion'
p2845
I4
sS'spicer'
p2846
I5
sS'makes'
p2847
I7
sS'delays'
p2848
I2
sS'thats'
p2849
I1
sS'named'
p2850
I4
sS'writer'
p2851
I1
sS'addresses'
p2852
I3
sS'wedge'
p2853
I1
sS'egypt'
p2854
I1
sS'win'
p2855
I23
sS'wil'
p2856
I1
sS'private'
p2857
I3
sS'moonlighting'
p2858
I1
sS'names'
p2859
I7
sS'scandal'
p2860
I4
sS'bonald'
p2861
I1
sS'fed'
p2862
I3
sS'exciting'
p2863
I1
sS'from'
p2864
I47
sS'usa'
p2865
I1
sS'remains'
p2866
I1
sS'illegal'
p2867
I4
sS'hammered'
p2868
I1
sS'next'
p2869
I7
sS'doubt'
p2870
I2
sS'vehicle'
p2871
I1
sS'binges'
p2872
I1
sS'congratulates'
p2873
I2
sS'themselves'
p2874
I1
sS'stage'
p2875
I6
sS'rick'
p2876
I1
sS'bureaucracy'
p2877
I1
sS'sons'
p2878
I2
sS'parliament'
p2879
I3
sS'formally'
p2880
I3
sS'journalists'
p2881
I1
sS'biblical'
p2882
I1
sS'on'
p2883
I205
sS'halloween'
p2884
I4
sS'patrol'
p2885
I1
sS'impress'
p2886
I1
sS'blindsides'
p2887
I1
sS'visibility'
p2888
I1
sS'missile'
p2889
I11
sS'dealings'
p2890
I1
sS'heil'
p2891
I1
sS'brexiteers'
p2892
I1
sS'recount'
p2893
I2
sS'baby'
p2894
I1
sS'pocahontas'
p2895
I2
sS'women'
p2896
I12
sS'account'
p2897
I2
sS'darwin'
p2898
I2
sS'fulfils'
p2899
I1
sS'sanctions'
p2900
I10
sS'this'
p2901
I6
sS'ride'
p2902
I1
sS'nafta'
p2903
I2
sS'insists'
p2904
I2
sS'halt'
p2905
I1
sS'recognise'
p2906
I2
sS'prompts'
p2907
I3
sS'praise'
p2908
I2
sS'smear'
p2909
I1
sS'meet'
p2910
I15
sS'drops'
p2911
I4
sS'didnt'
p2912
I3
sS'dissolve'
p2913
I1
sS'something'
p2914
I1
sS'control'
p2915
I2
sS'beijing'
p2916
I2
sS'weaker'
p2917
I1
sS'tap'
p2918
I1
sS'links'
p2919
I5
sS'lock'
p2920
I2
sS'proportions'
p2921
I1
sS'tax'
p2922
I29
sS'high'
p2923
I3
sS'flake'
p2924
I2
sS'slip'
p2925
I1
sS'sought'
p2926
I1
sS'enrique'
p2927
I1
sS'texas'
p2928
I4
sS'trumpet'
p2929
I1
sS'weaken'
p2930
I1
sS'united'
p2931
I9
sS'holds'
p2932
I6
sS'struggles'
p2933
I1
sS'panellist'
p2934
I1
sS'traders'
p2935
I1
sS'brian'
p2936
I1
sS'slamming'
p2937
I1
sS'struggled'
p2938
I1
sS'comedy'
p2939
I2
sS'panic'
p2940
I1
sS'inappropriate'
p2941
I2
sS'sil'
p2942
I1
sS'tension'
p2943
I1
sS'buildings'
p2944
I1
sS'blocks'
p2945
I4
sS'hitches'
p2946
I1
sS'attend'
p2947
I1
sS'watch'
p2948
I2
sS'waters'
p2949
I2
sS'act'
p2950
I3
sS'masks'
p2951
I3
sS'abuse'
p2952
I2
sS'bluff'
p2953
I1
sS'fits'
p2954
I1
sS'ties'
p2955
I8
sS'worried'
p2956
I1
sS'concern'
p2957
I1
sS'counter'
p2958
I2
sS'duterte'
p2959
I3
sS'robot'
p2960
I1
sS'chief'
p2961
I18
sS'allow'
p2962
I3
sS'healthcare'
p2963
I7
sS'christopher'
p2964
I1
sS'looking'
p2965
I2
sS'houston'
p2966
I2
sS'six'
p2967
I1
sS'comms'
p2968
I2
sS'reeling'
p2969
I1
sS'geopolitics'
p2970
I1
sS'move'
p2971
I11
sS'inaugural'
p2972
I1
sS'own'
p2973
I7
sS'looks'
p2974
I3
sS'horns'
p2975
I2
sS'subpoenaed'
p2976
I1
sS'boosts'
p2977
I3
sS'warren'
p2978
I1
sS'chemical'
p2979
I3
sS'le'
p2980
I1
sS'll'
p2981
I1
sS'glee'
p2982
I1
sS'emails'
p2983
I8
sS'willing'
p2984
I1
sS'choose'
p2985
I3
sS'puerto'
p2986
I7
sS'2017'
p2987
I1
sS'2016'
p2988
I3
sS'crowds'
p2989
I2
sS'gard'
p2990
I2
sS'elites'
p2991
I1
sS'koreans'
p2992
I2
sS'violating'
p2993
I1
sS'crucial'
p2994
I1
sS'greater'
p2995
I1
sS'grievances'
p2996
I1
sS'catherine'
p2997
I1
sS'dan'
p2998
I1
sS'spell'
p2999
I2
sS'sweets'
p3000
I1
sS'ferguson'
p3001
I1
sS'yuge'
p3002
I1
sS'hands'
p3003
I3
sS'souza'
p3004
I2
sS'republican'
p3005
I19
sS'investor'
p3006
I1
sS'outlines'
p3007
I3
sS'presidential'
p3008
I19
sS'applicants'
p3009
I1
sS'warned'
p3010
I1
sS'university'
p3011
I2
sS'nfl'
p3012
I10
sS'memoir'
p3013
I1
sS'billy'
p3014
I2
sS'slide'
p3015
I1
sS'doesnt'
p3016
I6
sS'postpresidency'
p3017
I1
sS'bromance'
p3018
I1
sS'truth'
p3019
I3
sS'interview'
p3020
I2
sS'modi'
p3021
I2
sS'nationals'
p3022
I1
sS'erratic'
p3023
I1
sS'glasses'
p3024
I1
sS'unwind'
p3025
I1
sS'bump'
p3026
I2
sS'unmet'
p3027
I1
sS'related'
p3028
I1
sS'collusion'
p3029
I1
sS'pivot'
p3030
I1
sS'flourishes'
p3031
I1
sS'transitions'
p3032
I1
sS'sexual'
p3033
I6
sS'special'
p3034
I3
sS'out'
p3035
I31
sS'respects'
p3036
I1
sS'matt'
p3037
I2
sS'lushsux'
p3038
I1
sS'sentiment'
p3039
I1
sS'entertainment'
p3040
I1
sS'announces'
p3041
I8
sS'defend'
p3042
I4
sS'chaos'
p3043
I6
sS'critics'
p3044
I1
sS'activist'
p3045
I1
sS'deloitte'
p3046
I1
sS'lecture'
p3047
I1
sS'cause'
p3048
I1
sS'pruitt'
p3049
I3
sS'shut'
p3050
I2
sS'granddaughter'
p3051
I2
sS'frank'
p3052
I2
sS'reacts'
p3053
I4
sS'humiliating'
p3054
I1
sS'delegates'
p3055
I1
sS'grilled'
p3056
I1
sS'regulators'
p3057
I1
sS'surely'
p3058
I1
sS'york'
p3059
I7
sS'advisor'
p3060
I4
sS'conflicts'
p3061
I1
sS'philip'
p3062
I1
sS'backwards'
p3063
I1
sS'allies'
p3064
I9
sS'prepare'
p3065
I1
sS'g'
p3066
I1
sS'islamic'
p3067
I2
sS'could'
p3068
I30
sS'florida'
p3069
I7
sS'keep'
p3070
I1
sS'conversation'
p3071
I2
sS'davis'
p3072
I1
sS'saul'
p3073
I1
sS'housing'
p3074
I2
sS'south'
p3075
I12
sS'distracted'
p3076
I1
sS'evans'
p3077
I1
sS'powerful'
p3078
I1
sS'owned'
p3079
I1
sS'457'
p3080
I1
sS'emmanual'
p3081
I1
sS'blows'
p3082
I1
sS'prank'
p3083
I1
sS'hed'
p3084
I1
sS'data'
p3085
I1
sS'vulgar'
p3086
I5
sS'detailing'
p3087
I1
sS'system'
p3088
I4
sS'relations'
p3089
I6
sS'mccains'
p3090
I1
sS'priority'
p3091
I1
sS'their'
p3092
I5
sS'attack'
p3093
I17
sS'contenders'
p3094
I1
sS'declines'
p3095
I1
sS'palestine'
p3096
I2
sS'seselja'
p3097
I1
sS'final'
p3098
I5
sS'testing'
p3099
I2
sS'stars'
p3100
I1
sS'punish'
p3101
I2
sS'apologise'
p3102
I2
sS'jinpings'
p3103
I1
sS'disguised'
p3104
I1
sS'jinpingi'
p3105
I1
sS'alleges'
p3106
I1
sS'blind'
p3107
I1
sS'neck'
p3108
I2
sS'steel'
p3109
I1
sS'resist'
p3110
I1
sS'ultimatum'
p3111
I1
sS'ben'
p3112
I2
sS'things'
p3113
I3
sS'limiting'
p3114
I1
sS'probe'
p3115
I12
sS'sweden'
p3116
I2
sS'briefing'
p3117
I2
sS'surge'
p3118
I1
sS'waterboarding'
p3119
I1
sS'spurs'
p3120
I2
sS'pardoned'
p3121
I1
sS'accusing'
p3122
I2
sS'julian'
p3123
I1
sS'partnership'
p3124
I1
sS'defending'
p3125
I1
sS'have'
p3126
I16
sS'border'
p3127
I12
sS'linked'
p3128
I3
sS'reaches'
p3129
I1
sS'documents'
p3130
I1
sS'europes'
p3131
I1
sS'koreas'
p3132
I1
sS'mic'
p3133
I1
sS'agency'
p3134
I2
sS'mid'
p3135
I1
sS'battles'
p3136
I1
sS'concerns'
p3137
I9
sS'jail'
p3138
I2
sS'korean'
p3139
I8
sS'subject'
p3140
I1
sS'brand'
p3141
I1
sS'worldwide'
p3142
I2
sS'lectures'
p3143
I1
sS'sisi'
p3144
I2
sS'agenda'
p3145
I5
sS'vist'
p3146
I1
sS'fidel'
p3147
I1
sS'who'
p3148
I22
sS'caputo'
p3149
I1
sS'hamas'
p3150
I1
sS'courtesy'
p3151
I1
sS'visa'
p3152
I9
sS'capacity'
p3153
I1
sS'gunners'
p3154
I1
sS'transcript'
p3155
I5
sS'class'
p3156
I5
sS'prove'
p3157
I1
sS'volunteers'
p3158
I1
sS'consequences'
p3159
I3
sS'appallingly'
p3160
I1
sS'gather'
p3161
I1
sS'request'
p3162
I1
sS'face'
p3163
I6
sS'absurd'
p3164
I1
sS'businessman'
p3165
I2
sS'fact'
p3166
I1
sS'impression'
p3167
I1
sS'parker'
p3168
I1
sS'farage'
p3169
I1
sS'jnr'
p3170
I1
sS'text'
p3171
I1
sS'charles'
p3172
I1
sS'anyway'
p3173
I1
sS'disbanded'
p3174
I1
sS'vacancy'
p3175
I1
sS'destroy'
p3176
I2
sS'manchester'
p3177
I1
sS'democrats'
p3178
I9
sS'rebuke'
p3179
I1
sS'soldiers'
p3180
I3
sS'fear'
p3181
I3
sS'debate'
p3182
I22
sS'staff'
p3183
I5
sS'taps'
p3184
I1
sS'based'
p3185
I3
sS'sanctioned'
p3186
I1
sS'sheriff'
p3187
I1
sS'sparks'
p3188
I4
sS'wreak'
p3189
I1
sS'softens'
p3190
I1
sS'betsy'
p3191
I1
sS'bases'
p3192
I1
sS'tape'
p3193
I4
sS'gradual'
p3194
I1
sS'employee'
p3195
I3
sS'gillard'
p3196
I1
sS'staunch'
p3197
I1
sS'handle'
p3198
I1
sS'monuments'
p3199
I1
sS'lucky'
p3200
I1
sS'impeachment'
p3201
I3
sS'fraud'
p3202
I3
sS'sues'
p3203
I1
sS'joins'
p3204
I4
sS'gorsuch'
p3205
I6
sS'taxes'
p3206
I2
sS'affluent'
p3207
I1
sS'she'
p3208
I1
sS'wish'
p3209
I1
sS'ohio'
p3210
I2
sS'widow'
p3211
I5
sS'conform'
p3212
I1
sS'temporarily'
p3213
I1
sS'accuses'
p3214
I2
sS'prayers'
p3215
I1
sS'national'
p3216
I16
sS'showdown'
p3217
I1
sS'reddit'
p3218
I2
sS'immigrant'
p3219
I1
sS'travis'
p3220
I1
sS'cairns'
p3221
I1
sS'officials'
p3222
I3
sS'unfairly'
p3223
I2
sS'confrontational'
p3224
I1
sS'awaits'
p3225
I1
sS'closer'
p3226
I1
sS'wire'
p3227
I3
sS'maddow'
p3228
I2
sS'reform'
p3229
I2
sS'nuclear'
p3230
I12
sS'missing'
p3231
I1
sS'macron'
p3232
I8
sS'discounts'
p3233
I2
sS'mexicans'
p3234
I2
sS'difficulties'
p3235
I1
sS'confusion'
p3236
I1
sS'progress'
p3237
I1
sS'email'
p3238
I6
sS'levinthal'
p3239
I1
sS'cassidy'
p3240
I1
sS'ken'
p3241
I1
sS'ends'
p3242
I5
sS'restricting'
p3243
I1
sS'explosive'
p3244
I1
sS'janet'
p3245
I2
sS'labelled'
p3246
I1
sS'focus'
p3247
I3
sS'agencies'
p3248
I2
sS'scolds'
p3249
I2
sS'disneys'
p3250
I1
sS'job'
p3251
I5
sS'navajos'
p3252
I2
sS'joe'
p3253
I6
sS'key'
p3254
I11
sS'group'
p3255
I2
sS'wh'
p3256
I1
sS'lawsuit'
p3257
I4
sS'problem'
p3258
I2
sS'david'
p3259
I4
sS'restrictions'
p3260
I1
sS'hits'
p3261
I10
sS'revers'
p3262
I1
sS'robberies'
p3263
I1
sS'joke'
p3264
I1
sS'taking'
p3265
I2
sS'ramp'
p3266
I1
sS'aircraft'
p3267
I1
sS'drug'
p3268
I2
sS'darweesh'
p3269
I1
sS'april'
p3270
I1
sS'revokes'
p3271
I1
sS'tater'
p3272
I1
sS'trumps'
p3273
I219
sS'invites'
p3274
I2
sS'withdraws'
p3275
I1
sS'jim'
p3276
I1
sS'statues'
p3277
I1
sS'wall'
p3278
I51
sS'malcolm'
p3279
I21
sS'iannucci'
p3280
I1
sS'batavia'
p3281
I1
sS'brennan'
p3282
I2
sS'army'
p3283
I1
sS'table'
p3284
I2
sS'winning'
p3285
I3
sS'nomination'
p3286
I1
sS'unearthed'
p3287
I1
sS'poem'
p3288
I3
sS'industrials'
p3289
I1
sS'videos'
p3290
I1
sS'hunters'
p3291
I1
sS'sara'
p3292
I1
sS'challenged'
p3293
I1
sS'responds'
p3294
I2
sS'quiz'
p3295
I4
sS'immense'
p3296
I1
sS'liberals'
p3297
I2
sS'apec'
p3298
I2
sS'waste'
p3299
I1
sS'revives'
p3300
I1
sS'mike'
p3301
I5
sS'mika'
p3302
I2
sS'remembers'
p3303
I2
sS'releasing'
p3304
I1
sS'protect'
p3305
I1
sS'netanyahu'
p3306
I3
sS'scrutiny'
p3307
I1
sS'policy'
p3308
I14
sS'erdogan'
p3309
I1
sS'tense'
p3310
I1
sS'watches'
p3311
I1
sS'hateful'
p3312
I1
sS'covered'
p3313
I1
sS'unmoved'
p3314
I1
sS'atlanta'
p3315
I1
sS'general'
p3316
I10
sS'painter'
p3317
I2
sS'land'
p3318
I2
sS'criminal'
p3319
I1
sS'abandoned'
p3320
I1
sS'edging'
p3321
I1
sS'appearance'
p3322
I1
sS'as'
p3323
I82
sS'salman'
p3324
I1
sS'choices'
p3325
I1
sS'will'
p3326
I67
sS'petition'
p3327
I1
sS'cox'
p3328
I1
sS'rigged'
p3329
I3
sS'coincidental'
p3330
I1
sS'inherits'
p3331
I1
sS'almost'
p3332
I1
sS'narendra'
p3333
I2
sS'surface'
p3334
I1
sS'helped'
p3335
I5
sS'hints'
p3336
I1
sS'vs'
p3337
I3
sS'optimistic'
p3338
I1
sS'swinging'
p3339
I1
sS'lifetime'
p3340
I1
sS'arabia'
p3341
I4
sS'partner'
p3342
I2
sS'scotus'
p3343
I1
sS'stands'
p3344
I2
sS'education'
p3345
I1
sS'barron'
p3346
I1
sS'balloon'
p3347
I2
sS'views'
p3348
I1
sS'administration'
p3349
I19
sS'cross'
p3350
I2
sS'romance'
p3351
I1
sS'unity'
p3352
I1
sS'strange'
p3353
I2
sS'speaker'
p3354
I2
sS'rattled'
p3355
I1
sS'party'
p3356
I3
sS'terrorism'
p3357
I5
sS'gets'
p3358
I6
sS'powell'
p3359
I3
sS'gauging'
p3360
I1
sS'columbia'
p3361
I1
sS'bali'
p3362
I1
sS'huntsman'
p3363
I1
sS'reporting'
p3364
I1
sS'effect'
p3365
I6
sS'automation'
p3366
I1
sS'beast'
p3367
I1
sS'paving'
p3368
I1
sS'spree'
p3369
I1
sS'supremacists'
p3370
I2
sS'lobby'
p3371
I1
sS'identity'
p3372
I2
sS'off'
p3373
I13
sS'yates'
p3374
I1
sS'i'
p3375
I5
sS'indonesia'
p3376
I3
sS'fighting'
p3377
I1
sS'zervos'
p3378
I1
sS'deadly'
p3379
I1
sS'position'
p3380
I1
sS'alec'
p3381
I4
sS'latest'
p3382
I7
sS'restore'
p3383
I1
sS'medley'
p3384
I1
sS'newest'
p3385
I1
sS'barking'
p3386
I2
sS'rocket'
p3387
I1
sS'less'
p3388
I1
sS'moments'
p3389
I7
sS'offensive'
p3390
I2
sS'executive'
p3391
I15
sS'domestic'
p3392
I1
sS'detail'
p3393
I1
sS'recap'
p3394
I1
sS'recollection'
p3395
I1
sS'predicts'
p3396
I1
sS'dakota'
p3397
I1
sS'tone'
p3398
I1
sS'paul'
p3399
I9
sS'rescue'
p3400
I1
sS'brad'
p3401
I1
sS'hamburg'
p3402
I1
sS'scaramucci'
p3403
I10
sS'headed'
p3404
I1
sS'smith'
p3405
I1
sS'day'
p3406
I12
sS'add'
p3407
I1
sS'book'
p3408
I3
sS'nato'
p3409
I11
sS'crack'
p3410
I1
sS'astronaut'
p3411
I1
sS'niro'
p3412
I2
sS'tests'
p3413
I1
sS'increased'
p3414
I1
sS'fate'
p3415
I1
sS'government'
p3416
I6
sS'olle'
p3417
I1
sS'protesters'
p3418
I5
sS'falters'
p3419
I1
sS'coffees'
p3420
I1
sS'historic'
p3421
I4
sS'know'
p3422
I2
sS'press'
p3423
I22
sS'fools'
p3424
I1
sS'loss'
p3425
I2
sS'showing'
p3426
I1
sS'like'
p3427
I14
sS'lost'
p3428
I3
sS'bigotry'
p3429
I1
sS'hobarts'
p3430
I1
sS'testimony'
p3431
I4
sS'hosts'
p3432
I2
sS'journalist'
p3433
I1
sS'beijings'
p3434
I1
sS'become'
p3435
I4
sS'refugees'
p3436
I7
sS'italian'
p3437
I1
sS'opioid'
p3438
I3
sS'because'
p3439
I2
sS'pauline'
p3440
I1
sS'twitter'
p3441
I18
sS'hail'
p3442
I3
sS'growth'
p3443
I1
sS'export'
p3444
I1
sS'paddock'
p3445
I2
sS'peter'
p3446
I3
sS'happens'
p3447
I4
sS'ravaged'
p3448
I2
sS'obsessed'
p3449
I1
sS'lead'
p3450
I7
sS'unpredictable'
p3451
I1
sS'broad'
p3452
I1
sS'avoid'
p3453
I2
sS'hurricane'
p3454
I6
sS'morris'
p3455
I1
sS'demonstrators'
p3456
I2
sS'does'
p3457
I14
sS'keystone'
p3458
I1
sS'leader'
p3459
I7
sS'debuts'
p3460
I1
sS'contestants'
p3461
I1
sS'mitt'
p3462
I1
sS'outlets'
p3463
I1
sS'beach'
p3464
I2
sS'pressure'
p3465
I3
sS'host'
p3466
I1
sS'usas'
p3467
I1
sS'insults'
p3468
I2
sS'panel'
p3469
I5
sS'about'
p3470
I33
sS'puts'
p3471
I5
sS'extension'
p3472
I1
sS'getting'
p3473
I1
sS'freedom'
p3474
I2
sS'shoes'
p3475
I1
sS'urged'
p3476
I2
sS'accusers'
p3477
I4
sS'union'
p3478
I1
sS'carrier'
p3479
I2
sS'preet'
p3480
I1
sS'urges'
p3481
I8
sS'clooney'
p3482
I1
sS'executives'
p3483
I1
sS'alliance'
p3484
I2
sS'influencer'
p3485
I1
sS'glenn'
p3486
I1
sS'owe'
p3487
I1
sS'political'
p3488
I3
sS'cheque'
p3489
I1
sS'washington'
p3490
I13
sS'commitment'
p3491
I3
sS'fascist'
p3492
I1
sS'three'
p3493
I4
sS'included'
p3494
I1
sS'guard'
p3495
I1
sS'weather'
p3496
I1
sS'promise'
p3497
I5
sS'female'
p3498
I2
sS'couldnt'
p3499
I1
sS'whos'
p3500
I1
sS'negotiable'
p3501
I1
sS'demeanour'
p3502
I1
sS'mississippi'
p3503
I1
sS'accused'
p3504
I3
sS'rushed'
p3505
I2
sS'transfer'
p3506
I1
sS'museum'
p3507
I2
sS'indictments'
p3508
I1
sS'spots'
p3509
I1
sS'doing'
p3510
I1
sS'describes'
p3511
I2
sS'biggest'
p3512
I2
sS'exposure'
p3513
I1
sS'flynn'
p3514
I16
sS'glib'
p3515
I1
sS'buy'
p3516
I2
sS'north'
p3517
I83
sS'funds'
p3518
I1
sS'abductions'
p3519
I1
sS'agrees'
p3520
I1
sS'but'
p3521
I12
sS'delivery'
p3522
I2
sS'construction'
p3523
I1
sS'gain'
p3524
I1
sS'courts'
p3525
I1
sS'delivers'
p3526
I4
sS'he'
p3527
I41
sS'breakthrough'
p3528
I1
sS'made'
p3529
I5
sS'wise'
p3530
I1
sS'glory'
p3531
I1
sS'hop'
p3532
I1
sS'whether'
p3533
I1
sS'dangerous'
p3534
I2
sS'official'
p3535
I5
sS'grieve'
p3536
I1
sS'backfires'
p3537
I1
sS'record'
p3538
I5
sS'stories'
p3539
I2
sS'ruling'
p3540
I2
sS'cake'
p3541
I2
sS'dmz'
p3542
I2
sS'piece'
p3543
I1
sS'sponsor'
p3544
I1
sS'cordial'
p3545
I1
sS'supreme'
p3546
I12
sS'deaths'
p3547
I1
sS'curve'
p3548
I1
sS'ki'
p3549
I1
sS'romney'
p3550
I2
sS'upsets'
p3551
I1
sS'touts'
p3552
I1
sS'twist'
p3553
I2
sS'replica'
p3554
I1
sS'implement'
p3555
I1
sS'ine'
p3556
I1
sS'shooting'
p3557
I6
sS'eric'
p3558
I2
sS'jesse'
p3559
I1
sS'diego'
p3560
I1
sS'compared'
p3561
I1
sS'contest'
p3562
I1
sS'trials'
p3563
I1
sS'44'
p3564
I1
sS'boos'
p3565
I2
sS'42'
p3566
I1
sS'treatment'
p3567
I1
sS'satirise'
p3568
I1
sS'other'
p3569
I6
sS'details'
p3570
I1
sS'sick'
p3571
I3
sS'better'
p3572
I1
sS'welcomes'
p3573
I4
sS'behold'
p3574
I1
sS'annouces'
p3575
I1
sS'guys'
p3576
I1
sS'hacker'
p3577
I1
sS'francisco'
p3578
I1
sS'star'
p3579
I4
sS'waves'
p3580
I1
sS'june'
p3581
I1
sS'tabloid'
p3582
I1
sS'stay'
p3583
I5
sS'socialising'
p3584
I1
sS'chance'
p3585
I2
sS'ceos'
p3586
I1
sS'rural'
p3587
I1
sS'repeal'
p3588
I4
sS'friends'
p3589
I2
sS'inspiration'
p3590
I1
sS'searches'
p3591
I1
sS'stirred'
p3592
I1
sS'imposes'
p3593
I1
sS'stunt'
p3594
I1
sS'ipswich'
p3595
I1
sS'khanfar'
p3596
I1
sS'rule'
p3597
I2
sS'jab'
p3598
I2
sS'hinch'
p3599
I1
sS'compete'
p3600
I1
sS'tensions'
p3601
I3
sS'richardson'
p3602
I1
sS'miltary'
p3603
I1
sS'expands'
p3604
I1
s.