(dp0
S'four'
p1
I2
sS'hanging'
p2
I1
sS'marching'
p3
I1
sS'looking'
p4
I4
sS'kommonsentsjane'
p5
I1
sS'lord'
p6
I1
sS'regional'
p7
I1
sS'replaces'
p8
I2
sS'bringing'
p9
I2
sS'erfolg'
p10
I1
sS'piling'
p11
I1
sS'tired'
p12
I3
sS'miller'
p13
I1
sS'holocaust'
p14
I1
sS'270'
p15
I3
sS'elegant'
p16
I1
sS'second'
p17
I11
sS'jennett'
p18
I1
sS'loathing'
p19
I1
sS'brexit'
p20
I12
sS'battleground'
p21
I2
sS'deferred'
p22
I1
sS'fingers'
p23
I1
sS'decry'
p24
I1
sS'salbuch'
p25
I1
sS'shocks'
p26
I7
sS'hero'
p27
I3
sS'reporter'
p28
I16
sS'here'
p29
I15
sS'reported'
p30
I1
sS'china'
p31
I39
sS'dorm'
p32
I1
sS'kids'
p33
I4
sS'k'
p34
I3
sS'reports'
p35
I17
sS'controversy'
p36
I1
sS'transfixed'
p37
I1
sS'military'
p38
I22
sS'cancellation'
p39
I1
sS'criticism'
p40
I11
sS'golden'
p41
I2
sS'projection'
p42
I1
sS'criticise'
p43
I1
sS'explained'
p44
I3
sS'replace'
p45
I8
sS'brought'
p46
I1
sS'opponents'
p47
I2
sS'cheating'
p48
I2
sS'dnc'
p49
I3
sS'impartiality'
p50
I1
sS'grahame'
p51
I1
sS'inevitable'
p52
I1
sS'music'
p53
I1
sS'strike'
p54
I9
sS'marchers'
p55
I2
sS'until'
p56
I1
sS'funciona'
p57
I1
sS'mired'
p58
I1
sS'successful'
p59
I1
sS'sortie'
p60
I1
sS'hurt'
p61
I2
sS'glass'
p62
I1
sS'91'
p63
I1
sS'90'
p64
I1
sS'hold'
p65
I5
sS'95'
p66
I1
sS'intake'
p67
I1
sS'locked'
p68
I1
sS'pursue'
p69
I2
sS'locker'
p70
I2
sS'radicalisation'
p71
I1
sS'moralmatters'
p72
I1
sS'currency'
p73
I1
sS'caution'
p74
I1
sS'hardens'
p75
I1
sS'counseling'
p76
I1
sS'travel'
p77
I52
sS'damage'
p78
I1
sS'machine'
p79
I4
sS'how'
p80
I61
sS'hot'
p81
I4
sS'hop'
p82
I1
sS'place'
p83
I3
sS'mueller'
p84
I4
sS'beauty'
p85
I1
sS'wrong'
p86
I6
sS'wins'
p87
I31
sS'attracts'
p88
I1
sS'revolt'
p89
I2
sS'deutsche'
p90
I2
sS'sickening'
p91
I1
sS'unlawfully'
p92
I1
sS'keeps'
p93
I2
sS'democratic'
p94
I6
sS'wing'
p95
I5
sS'wind'
p96
I1
sS'restriction'
p97
I1
sS'welcomed'
p98
I3
sS'murals'
p99
I1
sS'owens'
p100
I1
sS'wrought'
p101
I1
sS'dreamer'
p102
I1
sS'reprises'
p103
I1
sS'fit'
p104
I3
sS'screaming'
p105
I1
sS'fix'
p106
I2
sS'hidden'
p107
I3
sS'easier'
p108
I2
sS'thrones'
p109
I1
sS'effects'
p110
I2
sS'schools'
p111
I3
sS'represents'
p112
I2
sS'debut'
p113
I1
sS'soaring'
p114
I1
sS'armoured'
p115
I1
sS'dumps'
p116
I2
sS'interfering'
p117
I1
sS'financial'
p118
I5
sS'series'
p119
I4
sS'ring'
p120
I1
sS'trending'
p121
I1
sS'touts'
p122
I2
sS'recognising'
p123
I1
sS're'
p124
I10
sS'strategist'
p125
I6
sS'foundation'
p126
I5
sS'abbott'
p127
I2
sS'sellout'
p128
I1
sS'threatened'
p129
I3
sS'surveys'
p130
I1
sS'exposing'
p131
I1
sS'abetz'
p132
I1
sS'silicon'
p133
I1
sS'reprimanded'
p134
I1
sS'musicians'
p135
I1
sS'nigel'
p136
I1
sS'petraeus'
p137
I1
sS'channels'
p138
I1
sS'niger'
p139
I1
sS'clarity'
p140
I1
sS'endlich'
p141
I1
sS'basketball'
p142
I1
sS'service'
p143
I6
sS'lego'
p144
I2
sS'lawsuits'
p145
I4
sS'touting'
p146
I2
sS'listed'
p147
I1
sS'xiv'
p148
I1
sS'bitter'
p149
I3
sS'ranging'
p150
I1
sS'listen'
p151
I5
sS'collapse'
p152
I4
sS'predictable'
p153
I1
sS'chairwoman'
p154
I1
sS'uhlmann'
p155
I2
sS'white'
p156
I86
sS'showed'
p157
I2
sS'coward'
p158
I3
sS'tree'
p159
I2
sS'crave'
p160
I8
sS'nations'
p161
I5
sS'trey'
p162
I1
sS'feeling'
p163
I1
sS'apra'
p164
I1
sS'affairs'
p165
I2
sS'releases'
p166
I3
sS'recommended'
p167
I1
sS'causing'
p168
I1
sS'doors'
p169
I1
sS'fordert'
p170
I1
sS'kremlin'
p171
I5
sS'concedes'
p172
I4
sS'45th'
p173
I5
sS'committing'
p174
I2
sS'thrilled'
p175
I2
sS'looming'
p176
I1
sS'y'
p177
I1
sS'mouth'
p178
I1
sS'letter'
p179
I11
sS'organization'
p180
I1
sS'electionnight'
p181
I1
sS'upend'
p182
I1
sS'episode'
p183
I6
sS'released'
p184
I1
sS'professor'
p185
I3
sS'camp'
p186
I3
sS'makati'
p187
I1
sS'tech'
p188
I3
sS'scream'
p189
I1
sS'came'
p190
I3
sS'saying'
p191
I4
sS'signatures'
p192
I1
sS'meetings'
p193
I1
sS'advisors'
p194
I2
sS'sexist'
p195
I2
sS'qaeda'
p196
I1
sS'lethal'
p197
I1
sS'nominates'
p198
I2
sS'turnbull'
p199
I55
sS'lessons'
p200
I2
sS'parodies'
p201
I2
sS'touches'
p202
I1
sS'menu'
p203
I1
sS'rico'
p204
I5
sS'bush'
p205
I13
sS'rick'
p206
I1
sS'rich'
p207
I1
sS'mend'
p208
I1
sS'population'
p209
I1
sS'rwnj'
p210
I1
sS'tipp'
p211
I1
sS'net'
p212
I1
sS'volatility'
p213
I1
sS'greens'
p214
I1
sS'nicely'
p215
I1
sS'release'
p216
I5
sS'saul'
p217
I1
sS'respond'
p218
I1
sS'disaster'
p219
I3
sS'fair'
p220
I2
sS'result'
p221
I5
sS'fail'
p222
I4
sS'best'
p223
I4
sS'clarifies'
p224
I1
sS'score'
p225
I1
sS'ire'
p226
I1
sS'preserve'
p227
I1
sS'never'
p228
I8
sS'parallels'
p229
I2
sS'nationwide'
p230
I1
sS'bharara'
p231
I1
sS'deby'
p232
I1
sS'debt'
p233
I1
sS'marines'
p234
I1
sS'invigorates'
p235
I1
sS'veep'
p236
I1
sS'lgbt'
p237
I1
sS'country'
p238
I6
sS'cup'
p239
I1
sS'pitt'
p240
I1
sS'asked'
p241
I7
sS'and'
p242
I281
sS'alternate'
p243
I1
sS'rednecks'
p244
I1
sS'cult'
p245
I2
sS'259'
p246
I1
sS'contestants'
p247
I1
sS'shouting'
p248
I1
sS'chrome'
p249
I1
sS'criticised'
p250
I1
sS'much'
p251
I7
sS'fahrenthold'
p252
I1
sS'criticises'
p253
I7
sS'deportations'
p254
I2
sS'obese'
p255
I1
sS'life'
p256
I12
sS'sydney'
p257
I1
sS'eastern'
p258
I8
sS'hospitalized'
p259
I1
sS'worker'
p260
I3
sS'dave'
p261
I1
sS'pandering'
p262
I1
sS'child'
p263
I3
sS'worked'
p264
I2
sS'endingfed'
p265
I9
sS'spin'
p266
I1
sS'commerce'
p267
I1
sS'presidency'
p268
I52
sS'castro'
p269
I1
sS'played'
p270
I1
sS'taunts'
p271
I2
sS'campaigning'
p272
I2
sS'rapprochement'
p273
I1
sS'damaged'
p274
I3
sS'things'
p275
I11
sS'craigslist'
p276
I1
sS'damages'
p277
I1
sS'rebound'
p278
I1
sS'trumpton'
p279
I1
sS'fairly'
p280
I2
sS'marches'
p281
I1
sS'kushner'
p282
I5
sS'tops'
p283
I1
sS'slovenia'
p284
I2
sS'subpoena'
p285
I1
sS'echoes'
p286
I2
sS'backhanded'
p287
I1
sS'corporate'
p288
I1
sS'spurred'
p289
I1
sS'financially'
p290
I1
sS'waterboard'
p291
I1
sS'previous'
p292
I1
sS'handshake'
p293
I6
sS'ham'
p294
I1
sS'ease'
p295
I1
sS'had'
p296
I13
sS'macdonald'
p297
I2
sS'innocent'
p298
I2
sS'prison'
p299
I1
sS'has'
p300
I84
sS'hat'
p301
I1
sS'survival'
p302
I1
sS'possible'
p303
I9
sS'possibly'
p304
I2
sS'birth'
p305
I2
sS'unique'
p306
I1
sS'desire'
p307
I1
sS'remind'
p308
I1
sS'steps'
p309
I5
sS'sebastian'
p310
I2
sS'attorney'
p311
I7
sS'right'
p312
I22
sS'old'
p313
I15
sS'crowd'
p314
I7
sS'people'
p315
I29
sS'sonntagsfrage'
p316
I1
sS'sure'
p317
I2
sS'insistence'
p318
I1
sS'harassment'
p319
I1
sS'for'
p320
I367
sS'fox'
p321
I10
sS'individuals'
p322
I1
sS'frum'
p323
I1
sS'shakes'
p324
I2
sS'brigaded'
p325
I1
sS'yorks'
p326
I1
sS'lefty'
p327
I1
sS'einsatzgruppen'
p328
I1
sS'losing'
p329
I3
sS'manufacturing'
p330
I2
sS'yoko'
p331
I1
sS'derailed'
p332
I1
sS'filipina'
p333
I1
sS'dollars'
p334
I1
sS'o'
p335
I2
sS'collett'
p336
I2
sS'palestinians'
p337
I1
sS'meddle'
p338
I1
sS'bannon'
p339
I14
sS'raised'
p340
I1
sS'statements'
p341
I1
sS'neocon'
p342
I3
sS'dni'
p343
I1
sS'vorhaben'
p344
I1
sS'son'
p345
I7
sS'wray'
p346
I1
sS'sos'
p347
I1
sS'magazines'
p348
I1
sS'raises'
p349
I2
sS'wrap'
p350
I7
sS'waits'
p351
I1
sS'support'
p352
I20
sS'raped'
p353
I2
sS'joseph'
p354
I2
sS'greatness'
p355
I1
sS'happy'
p356
I5
sS'offer'
p357
I5
sS'paypal'
p358
I1
sS'back'
p359
I33
sS'talents'
p360
I1
sS'seguir'
p361
I1
sS'melania'
p362
I21
sS'tasmania'
p363
I2
sS'inside'
p364
I5
sS'peso'
p365
I1
sS'lays'
p366
I2
sS'smashed'
p367
I2
sS'panels'
p368
I1
sS'150'
p369
I1
sS'looms'
p370
I2
sS'liberal'
p371
I8
sS'proven'
p372
I2
sS'proves'
p373
I6
sS'elon'
p374
I2
sS'negotiations'
p375
I1
sS'floor'
p376
I1
sS'actor'
p377
I2
sS'role'
p378
I1
sS'protester'
p379
I7
sS'transgender'
p380
I12
sS'bossie'
p381
I1
sS'roll'
p382
I1
sS'models'
p383
I1
sS'outage'
p384
I1
sS'devos'
p385
I1
sS'muslims'
p386
I2
sS'miranda'
p387
I1
sS'rolling'
p388
I1
sS'kgb'
p389
I1
sS'time'
p390
I25
sS'push'
p391
I11
sS'overturned'
p392
I1
sS'decision'
p393
I18
sS'whoever'
p394
I1
sS'activated'
p395
I1
sS'selbst'
p396
I1
sS'chair'
p397
I4
sS'vet'
p398
I1
sS'rousing'
p399
I1
sS'lara'
p400
I2
sS'veterans'
p401
I6
sS'choice'
p402
I3
sS'mourn'
p403
I1
sS'exact'
p404
I2
sS'minute'
p405
I3
sS'tear'
p406
I1
sS'leave'
p407
I11
sS'holliday'
p408
I3
sS'settle'
p409
I2
sS'team'
p410
I16
sS'speculation'
p411
I3
sS'findings'
p412
I1
sS'prediction'
p413
I3
sS'sign'
p414
I8
sS'catatonic'
p415
I1
sS'g20'
p416
I15
sS'freaks'
p417
I2
sS'offguardian'
p418
I1
sS'falling'
p419
I1
sS'boost'
p420
I2
sS'jury'
p421
I2
sS'honour'
p422
I1
sS'understanding'
p423
I1
sS'address'
p424
I11
sS'alone'
p425
I3
sS'muskets'
p426
I1
sS'assassinating'
p427
I2
sS'brilliant'
p428
I1
sS'impacted'
p429
I1
sS'funded'
p430
I5
sS'accomplished'
p431
I1
sS'studies'
p432
I1
sS'love'
p433
I7
sS'betraying'
p434
I1
sS'fake'
p435
I17
sS'flagging'
p436
I1
sS'red'
p437
I3
sS'working'
p438
I8
sS'positive'
p439
I2
sS'angry'
p440
I3
sS'predictions'
p441
I1
sS'opposed'
p442
I1
sS'films'
p443
I1
sS'syrians'
p444
I1
sS'prosecutor'
p445
I1
sS'introducing'
p446
I1
sS'apparent'
p447
I1
sS'oregon'
p448
I1
sS'ignorant'
p449
I2
sS'recommits'
p450
I1
sS'anything'
p451
I4
sS'laguardia'
p452
I1
sS'abortion'
p453
I1
sS'believes'
p454
I2
sS'following'
p455
I3
sS'want'
p456
I9
sS'awesome'
p457
I1
sS'locks'
p458
I1
sS'hides'
p459
I1
sS'allowed'
p460
I4
sS'stole'
p461
I1
sS'listens'
p462
I1
sS'stunning'
p463
I4
sS'winter'
p464
I1
sS'elephant'
p465
I1
sS'divides'
p466
I1
sS'opeds'
p467
I1
sS'snaps'
p468
I2
sS'meddled'
p469
I1
sS'date'
p470
I1
sS'wikileaks'
p471
I6
sS'suck'
p472
I1
sS'revealed'
p473
I9
sS'sofort'
p474
I1
sS'wheelchair'
p475
I1
sS'su'
p476
I1
sS'st'
p477
I13
sS'sh'
p478
I1
sS'so'
p479
I15
sS'sc'
p480
I1
sS'pulled'
p481
I1
sS'se'
p482
I2
sS'flips'
p483
I2
sS'years'
p484
I7
sS'course'
p485
I4
sS'kellyanne'
p486
I1
sS'kanye'
p487
I2
sS'overhaul'
p488
I3
sS'torn'
p489
I1
sS'ovala'
p490
I1
sS'troubled'
p491
I1
sS'decades'
p492
I2
sS'limbo'
p493
I3
sS'instantly'
p494
I1
sS'civilian'
p495
I1
sS'smarter'
p496
I1
sS'nation'
p497
I10
sS'records'
p498
I6
sS'matched'
p499
I1
sS'revers'
p500
I1
sS'roasts'
p501
I1
sS'suspends'
p502
I1
sS'repaired'
p503
I1
sS'square'
p504
I1
sS'revised'
p505
I1
sS'breakthrough'
p506
I1
sS'sponsor'
p507
I1
sS'sexually'
p508
I3
sS'disasters'
p509
I1
sS'rioters'
p510
I2
sS'rounding'
p511
I1
sS'investigation'
p512
I26
sS'internet'
p513
I4
sS'convocar'
p514
I1
sS'complicates'
p515
I1
sS'curbs'
p516
I1
sS'prostitutes'
p517
I1
sS'million'
p518
I12
sS'possibility'
p519
I1
sS'loyalty'
p520
I1
sS'disrespect'
p521
I1
sS'recordings'
p522
I1
sS'plea'
p523
I1
sS'lahren'
p524
I1
sS'quits'
p525
I2
sS'disguised'
p526
I1
sS'collapsing'
p527
I1
sS'punk'
p528
I1
sS'massive'
p529
I9
sS'wenesday'
p530
I1
sS'saving'
p531
I1
sS'ono'
p532
I1
sS'reveals'
p533
I6
sS'parkinson'
p534
I1
sS'one'
p535
I27
sS'spanish'
p536
I1
sS'vote'
p537
I53
sS'open'
p538
I12
sS'ripping'
p539
I2
sS'city'
p540
I6
sS'indicate'
p541
I1
sS'teacher'
p542
I1
sS'2'
p543
I11
sS'draft'
p544
I2
sS'williams'
p545
I2
sS'slashes'
p546
I1
sS'surges'
p547
I1
sS'proving'
p548
I1
sS'meddling'
p549
I1
sS'ridiculous'
p550
I4
sS'bored'
p551
I1
sS'rival'
p552
I1
sS'coats'
p553
I1
sS'future'
p554
I7
sS'spat'
p555
I3
sS'disrespects'
p556
I1
sS'counselor'
p557
I1
sS'russia'
p558
I90
sS'shakeup'
p559
I1
sS'san'
p560
I3
sS'supremacist'
p561
I4
sS'turned'
p562
I1
sS'argument'
p563
I2
sS'sad'
p564
I4
sS'say'
p565
I18
sS'buried'
p566
I1
sS'allen'
p567
I2
sS'saw'
p568
I1
sS'sat'
p569
I1
sS'zoe'
p570
I10
sS'aside'
p571
I2
sS'note'
p572
I1
sS'take'
p573
I22
sS'destroy'
p574
I6
sS'vandals'
p575
I2
sS'opposite'
p576
I1
sS'ascendency'
p577
I1
sS'knew'
p578
I2
sS'suspects'
p579
I1
sS'remarks'
p580
I6
sS'lawn'
p581
I2
sS'average'
p582
I3
sS'defeating'
p583
I1
sS'ways'
p584
I4
sS'jitters'
p585
I1
sS'salt'
p586
I1
sS'walking'
p587
I2
sS'misconduct'
p588
I4
sS'infuriate'
p589
I1
sS'merit'
p590
I1
sS'propagandist'
p591
I1
sS'going'
p592
I13
sS'congressional'
p593
I1
sS'dispute'
p594
I1
sS'assistant'
p595
I1
sS'mandarin'
p596
I1
sS'rejoices'
p597
I1
sS'outlet'
p598
I1
sS'prime'
p599
I3
sS'kazanmak'
p600
I1
sS'pimp'
p601
I1
sS'worried'
p602
I1
sS'roger'
p603
I2
sS'worries'
p604
I1
sS'neutralise'
p605
I1
sS'vision'
p606
I7
sS'marlene'
p607
I1
sS'dives'
p608
I1
sS'rages'
p609
I1
sS'wielding'
p610
I2
sS'jumped'
p611
I1
sS'representatives'
p612
I1
sS'vaccines'
p613
I1
sS'preemptive'
p614
I1
sS'welcomes'
p615
I4
sS'jobs'
p616
I5
sS'vertical'
p617
I1
sS'screen'
p618
I1
sS'spare'
p619
I1
sS'jets'
p620
I1
sS'steyer'
p621
I1
sS'undermine'
p622
I3
sS'mans'
p623
I1
sS'many'
p624
I7
sS'flipped'
p625
I1
sS'semitic'
p626
I2
sS'expression'
p627
I1
sS'mccain'
p628
I6
sS'anti'
p629
I53
sS'comeback'
p630
I1
sS'considers'
p631
I1
sS'panics'
p632
I1
sS'stretch'
p633
I1
sS'west'
p634
I8
sS'vacation'
p635
I1
sS'concede'
p636
I1
sS'blackmails'
p637
I1
sS'wants'
p638
I20
sS'former'
p639
I25
sS'leitet'
p640
I1
sS'consultant'
p641
I2
sS'polls'
p642
I19
sS'voldemort'
p643
I2
sS'policies'
p644
I9
sS'situation'
p645
I3
sS'spotlight'
p646
I1
sS'engaged'
p647
I1
sS'mixtape'
p648
I1
sS'billiton'
p649
I1
sS'technology'
p650
I1
sS'fame'
p651
I13
sS'missiles'
p652
I2
sS'shuts'
p653
I1
sS'threatens'
p654
I12
sS'underestimate'
p655
I1
sS'otto'
p656
I1
sS'breakdown'
p657
I2
sS'putin'
p658
I50
sS'backfires'
p659
I3
sS'boosted'
p660
I1
sS'cheers'
p661
I1
sS'edges'
p662
I1
sS'gingrich'
p663
I4
sS'tracking'
p664
I2
sS'clipse'
p665
I1
sS'gdp'
p666
I2
sS'summer'
p667
I1
sS'being'
p668
I8
sS'tasmanian'
p669
I1
sS'weekly'
p670
I3
sS'deceiving'
p671
I1
sS'bernardi'
p672
I1
sS'zion'
p673
I1
sS'around'
p674
I3
sS'sums'
p675
I1
sS'unveil'
p676
I1
sS'dark'
p677
I1
sS'traffic'
p678
I1
sS'insist'
p679
I1
sS'libs'
p680
I3
sS'world'
p681
I61
sS'postal'
p682
I1
sS'dare'
p683
I3
sS'intel'
p684
I2
sS'tsunami'
p685
I1
sS'reaches'
p686
I3
sS'scamming'
p687
I1
sS'dilbert'
p688
I3
sS'divine'
p689
I1
sS'thinks'
p690
I6
sS'scandals'
p691
I2
sS'substance'
p692
I1
sS'gewonnen'
p693
I1
sS'exit'
p694
I3
sS'destroys'
p695
I5
sS'power'
p696
I18
sS'leadership'
p697
I1
sS'thailand'
p698
I1
sS'lucia'
p699
I1
sS'stone'
p700
I3
sS'package'
p701
I1
sS'industry'
p702
I3
sS'favorite'
p703
I4
sS'historischer'
p704
I1
sS'neighbor'
p705
I1
sS'act'
p706
I7
sS'bond'
p707
I2
sS'fundraising'
p708
I4
sS'burning'
p709
I3
sS'image'
p710
I3
sS'homeland'
p711
I1
sS'homeless'
p712
I13
sS'parties'
p713
I1
sS'wade'
p714
I1
sS'hypnotist'
p715
I1
sS'her'
p716
I26
sS'hes'
p717
I4
sS'philadelphia'
p718
I1
sS'springsteen'
p719
I3
sS'hed'
p720
I1
sS'reinvigorates'
p721
I1
sS'hookers'
p722
I1
sS'project'
p723
I2
sS'complete'
p724
I2
sS'land'
p725
I2
sS'with'
p726
I202
sS'buying'
p727
I3
sS'pull'
p728
I1
sS'october'
p729
I3
sS'rage'
p730
I5
sS'unveils'
p731
I2
sS'nearest'
p732
I1
sS'dirty'
p733
I2
sS'abuser'
p734
I1
sS'russ'
p735
I1
sS'politically'
p736
I1
sS'advantage'
p737
I1
sS'agree'
p738
I2
sS'gone'
p739
I1
sS'cnbc'
p740
I2
sS'ab'
p741
I1
sS'ad'
p742
I8
sS'johnny'
p743
I2
sS'ai'
p744
I1
sS'certain'
p745
I1
sS'stealing'
p746
I3
sS'am'
p747
I3
sS'al'
p748
I5
sS'watches'
p749
I1
sS'an'
p750
I27
sS'ap'
p751
I2
sS'as'
p752
I146
sS'at'
p753
I130
sS'hofstra'
p754
I1
sS'congress'
p755
I16
sS'gifts'
p756
I1
sS'terry'
p757
I1
sS'zuesse'
p758
I3
sS'tricks'
p759
I2
sS'mask'
p760
I2
sS'mass'
p761
I5
sS'adam'
p762
I1
sS'original'
p763
I1
sS'caused'
p764
I3
sS'beware'
p765
I1
sS'code'
p766
I1
sS'dankof'
p767
I2
sS'causes'
p768
I4
sS'tv'
p769
I8
sS'cheney'
p770
I1
sS'riots'
p771
I11
sS'to'
p772
I746
sS'nord'
p773
I1
sS'tc'
p774
I1
sS'case'
p775
I7
sS'floated'
p776
I1
sS'moines'
p777
I1
sS'joined'
p778
I1
sS'scrapping'
p779
I1
sS'sane'
p780
I1
sS'harry'
p781
I4
sS'small'
p782
I1
sS'dodger'
p783
I1
sS'lecturing'
p784
I1
sS'197'
p785
I1
sS'past'
p786
I3
sS'pass'
p787
I1
sS'investment'
p788
I2
sS'richard'
p789
I5
sS'schumer'
p790
I1
sS'scientists'
p791
I2
sS'corker'
p792
I5
sS'full'
p793
I20
sS'murkier'
p794
I1
sS'lobbyist'
p795
I1
sS'portrays'
p796
I2
sS'vomiting'
p797
I1
sS'hours'
p798
I2
sS'november'
p799
I5
sS'legend'
p800
I1
sS'reactionaries'
p801
I1
sS'experience'
p802
I1
sS'pics'
p803
I1
sS'prior'
p804
I1
sS'social'
p805
I2
sS'action'
p806
I10
sS'via'
p807
I1
sS'depart'
p808
I1
sS'vid'
p809
I1
sS'pulls'
p810
I3
sS'attendance'
p811
I2
sS'6'
p812
I3
sS'more'
p813
I32
sS'door'
p814
I6
sS'company'
p815
I2
sS'tested'
p816
I1
sS'doom'
p817
I1
sS'keeping'
p818
I2
sS'science'
p819
I2
sS'learn'
p820
I3
sS'knocked'
p821
I1
sS'grope'
p822
I1
sS'male'
p823
I2
sS'scramble'
p824
I1
sS'beautiful'
p825
I4
sS'scam'
p826
I3
sS'rodriguez'
p827
I1
sS'accept'
p828
I3
sS'states'
p829
I34
sS'biden'
p830
I5
sS'sense'
p831
I1
sS'mehr'
p832
I1
sS'huge'
p833
I5
sS'dismissed'
p834
I1
sS'glowing'
p835
I1
sS'disturbed'
p836
I1
sS'hugs'
p837
I2
sS'dismisses'
p838
I5
sS'plant'
p839
I1
sS'seoul'
p840
I2
sS'greenwald'
p841
I1
sS'plane'
p842
I3
sS'waves'
p843
I3
sS'ethics'
p844
I2
sS'refuse'
p845
I1
sS'presstitutes'
p846
I1
sS'wrench'
p847
I1
sS'wahabbi'
p848
I1
sS'imploding'
p849
I2
sS'mexican'
p850
I2
sS'brit'
p851
I1
sS'embassy'
p852
I5
sS'scott'
p853
I5
sS'signs'
p854
I18
sS'its'
p855
I8
sS'roots'
p856
I1
sS'alle'
p857
I1
sS'zoellick'
p858
I1
sS'bypass'
p859
I1
sS'followers'
p860
I1
sS'ally'
p861
I1
sS'mulvaney'
p862
I1
sS'colleague'
p863
I1
sS'abandons'
p864
I1
sS'wolpe'
p865
I1
sS'designation'
p866
I1
sS'always'
p867
I3
sS'truths'
p868
I1
sS'yearns'
p869
I1
sS'reassures'
p870
I1
sS'found'
p871
I2
sS'shocking'
p872
I5
sS'investigators'
p873
I1
sS'reactions'
p874
I1
sS'gfc'
p875
I1
sS'operation'
p876
I1
sS'really'
p877
I9
sS'anxious'
p878
I2
sS'missed'
p879
I1
sS'blacks'
p880
I8
sS'race'
p881
I12
sS'plotting'
p882
I2
sS'salute'
p883
I1
sS'belief'
p884
I1
sS'1920s'
p885
I1
sS'rises'
p886
I3
sS'pyne'
p887
I2
sS'owners'
p888
I1
sS'misogyny'
p889
I1
sS'similarly'
p890
I1
sS'w'
p891
I3
sS'bumper'
p892
I1
sS'reversing'
p893
I1
sS'unqualified'
p894
I1
sS'protectionist'
p895
I3
sS'belligerent'
p896
I1
sS'brutally'
p897
I1
sS'armitage'
p898
I1
sS'heads'
p899
I2
sS'jew'
p900
I2
sS'avec'
p901
I1
sS'swipe'
p902
I2
sS'threatening'
p903
I4
sS'philanthropy'
p904
I1
sS'saint'
p905
I1
sS'tats'
p906
I1
sS'relationship'
p907
I9
sS'immediate'
p908
I1
sS'obama'
p909
I92
sS'superluna'
p910
I1
sS'iranian'
p911
I2
sS'viviendo'
p912
I1
sS'defends'
p913
I23
sS'video'
p914
I34
sS'remembers'
p915
I2
sS'liveris'
p916
I3
sS'canceling'
p917
I1
sS'guarding'
p918
I3
sS'graffiti'
p919
I1
sS'bhp'
p920
I2
sS'sell'
p921
I2
sS'self'
p922
I3
sS'commemorates'
p923
I1
sS'also'
p924
I2
sS'dernier'
p925
I1
sS'play'
p926
I6
sS'haward'
p927
I1
sS'plan'
p928
I24
sS'accepting'
p929
I1
sS'seize'
p930
I2
sS'cover'
p931
I2
sS'barred'
p932
I1
sS'cultivating'
p933
I1
sS'tpp'
p934
I16
sS'dragged'
p935
I1
sS'golf'
p936
I4
sS'gold'
p937
I10
sS'defended'
p938
I1
sS'indias'
p939
I1
sS'defender'
p940
I1
sS'impact'
p941
I4
sS'detaining'
p942
I1
sS'mauer'
p943
I1
sS'crawl'
p944
I1
sS'writes'
p945
I2
sS'writer'
p946
I1
sS'failed'
p947
I3
sS'wayne'
p948
I1
sS'captures'
p949
I1
sS'preparing'
p950
I1
sS'reporters'
p951
I3
sS'enemy'
p952
I3
sS'cry'
p953
I6
sS'banking'
p954
I3
sS'ivanka'
p955
I16
sS'insane'
p956
I2
sS'set'
p957
I10
sS'creator'
p958
I4
sS'activists'
p959
I2
sS'hameed'
p960
I1
sS'sex'
p961
I6
sS'see'
p962
I18
sS'sec'
p963
I1
sS'sea'
p964
I6
sS'knees'
p965
I1
sS'movie'
p966
I2
sS'leg'
p967
I1
sS'saakashvili'
p968
I2
sS'rejecting'
p969
I1
sS'hollyweird'
p970
I1
sS'available'
p971
I1
sS'buoys'
p972
I1
sS'31k'
p973
I1
sS'incident'
p974
I1
sS'prospects'
p975
I1
sS'last'
p976
I12
sS'influential'
p977
I2
sS'approve'
p978
I1
sS'messiah'
p979
I2
sS'load'
p980
I1
sS'loan'
p981
I1
sS'olle'
p982
I1
sS'agents'
p983
I1
sS'church'
p984
I4
sS'belt'
p985
I1
sS'blog'
p986
I5
sS'devil'
p987
I2
sS'satire'
p988
I3
sS'assassinated'
p989
I2
sS'firm'
p990
I1
sS'sweetheart'
p991
I1
sS'fire'
p992
I8
sS'fund'
p993
I1
sS'insiders'
p994
I4
sS'deport'
p995
I2
sS'uncertain'
p996
I1
sS'judicial'
p997
I2
sS'straight'
p998
I1
sS'expanded'
p999
I1
sS'pilger'
p1000
I2
sS'admire'
p1001
I1
sS'backing'
p1002
I3
sS'vot'
p1003
I1
sS'vow'
p1004
I1
sS'owes'
p1005
I1
sS'decor'
p1006
I1
sS'shorten'
p1007
I3
sS'aleppo'
p1008
I3
sS'alert'
p1009
I4
sS'infamous'
p1010
I2
sS'recent'
p1011
I1
sS'surrogate'
p1012
I2
sS'makes'
p1013
I16
sS'picks'
p1014
I8
sS'person'
p1015
I7
sS'kelly'
p1016
I10
sS'tim'
p1017
I1
sS'austyn'
p1018
I1
sS'stunt'
p1019
I1
sS'conclusions'
p1020
I1
sS'lady'
p1021
I7
sS'admission'
p1022
I2
sS'signals'
p1023
I2
sS'crying'
p1024
I2
sS'surprised'
p1025
I1
sS'niece'
p1026
I1
sS'lampooning'
p1027
I1
sS'indonesian'
p1028
I2
sS'australia'
p1029
I34
sS'victims'
p1030
I2
sS'emergency'
p1031
I2
sS'demands'
p1032
I2
sS'formal'
p1033
I1
sS'75th'
p1034
I2
sS'd'
p1035
I11
sS'communications'
p1036
I2
sS'continue'
p1037
I1
sS'disorder'
p1038
I3
sS'names'
p1039
I9
sS'partying'
p1040
I2
sS'senate'
p1041
I12
sS'spring'
p1042
I1
sS'bounce'
p1043
I1
sS'religion'
p1044
I1
sS'dating'
p1045
I1
sS'be'
p1046
I112
sS'agreement'
p1047
I6
sS'santa'
p1048
I1
sS'bs'
p1049
I1
sS'dictated'
p1050
I1
sS'by'
p1051
I134
sS'deserved'
p1052
I2
sS'whiteboard'
p1053
I1
sS'melbourne'
p1054
I3
sS'deserves'
p1055
I2
sS'clinton'
p1056
I214
sS'terrorists'
p1057
I1
sS'into'
p1058
I20
sS'appropriate'
p1059
I1
sS'controversies'
p1060
I1
sS'lebron'
p1061
I3
sS'spending'
p1062
I9
sS'crackdown'
p1063
I2
sS'addicting'
p1064
I8
sS'opens'
p1065
I5
sS'hawaiian'
p1066
I2
sS'jewish'
p1067
I4
sS'poster'
p1068
I1
sS'brazenness'
p1069
I1
sS'slump'
p1070
I1
sS'pastor'
p1071
I5
sS'trumpean'
p1072
I1
sS'link'
p1073
I5
sS'line'
p1074
I2
sS'posted'
p1075
I1
sS'cia'
p1076
I9
sS'ut'
p1077
I1
sS'up'
p1078
I54
sS'us'
p1079
I268
sS'un'
p1080
I33
sS'customers'
p1081
I1
sS'yellen'
p1082
I3
sS'uk'
p1083
I9
sS'nationalist'
p1084
I1
sS'armstrong'
p1085
I1
sS'influence'
p1086
I2
sS'haunt'
p1087
I1
sS'diverse'
p1088
I1
sS'takedown'
p1089
I1
sS'hail'
p1090
I3
sS'thugs'
p1091
I2
sS'intrepid'
p1092
I1
sS'actors'
p1093
I2
sS'condolence'
p1094
I1
sS'lashing'
p1095
I1
sS'jalandoni'
p1096
I1
sS'radikale'
p1097
I1
sS'suppression'
p1098
I8
sS'sides'
p1099
I3
sS'ago'
p1100
I5
sS'agl'
p1101
I1
sS'fighter'
p1102
I1
sS'age'
p1103
I5
sS'feud'
p1104
I2
sS'summit'
p1105
I4
sS'fresh'
p1106
I2
sS'consortiumnews'
p1107
I1
sS'having'
p1108
I2
sS'essay'
p1109
I1
sS'amish'
p1110
I1
sS'advisory'
p1111
I3
sS'effigy'
p1112
I1
sS'results'
p1113
I10
sS'soften'
p1114
I2
sS'mosul'
p1115
I2
sS'flashback'
p1116
I1
sS'concerned'
p1117
I1
sS'young'
p1118
I6
sS'send'
p1119
I7
sS'tequila'
p1120
I1
sS'sent'
p1121
I3
sS'probe'
p1122
I15
sS'continues'
p1123
I11
sS'reopened'
p1124
I2
sS'tulsi'
p1125
I1
sS'manipulated'
p1126
I1
sS'llama'
p1127
I1
sS'savchenko'
p1128
I1
sS'nieto'
p1129
I4
sS'continued'
p1130
I1
sS'try'
p1131
I4
sS'trudeau'
p1132
I2
sS'pledge'
p1133
I1
sS'overshadows'
p1134
I1
sS'hyde'
p1135
I1
sS'licenses'
p1136
I1
sS'index'
p1137
I1
sS'hissy'
p1138
I2
sS'expressed'
p1139
I1
sS'indian'
p1140
I1
sS'turnaround'
p1141
I1
sS'expresses'
p1142
I1
sS'charade'
p1143
I1
sS'bird'
p1144
I1
sS'scepticism'
p1145
I1
sS'led'
p1146
I1
sS'chinas'
p1147
I1
sS'apace'
p1148
I1
sS'unauthorized'
p1149
I1
sS'punch'
p1150
I4
sS'les'
p1151
I2
sS'let'
p1152
I4
sS'licence'
p1153
I1
sS'invented'
p1154
I1
sS'great'
p1155
I13
sS'engage'
p1156
I1
sS'involved'
p1157
I1
sS'defeat'
p1158
I3
sS'opinion'
p1159
I4
sS'residents'
p1160
I2
sS'stephanie'
p1161
I2
sS'maker'
p1162
I1
sS'thats'
p1163
I1
sS'moonlighting'
p1164
I1
sS'dumbest'
p1165
I2
sS'tools'
p1166
I3
sS'standing'
p1167
I1
sS'confidence'
p1168
I1
sS'exciting'
p1169
I1
sS'certificate'
p1170
I1
sS'illegal'
p1171
I9
sS'next'
p1172
I16
sS'doubt'
p1173
I2
sS'binges'
p1174
I1
sS'baba'
p1175
I1
sS'shipwreck'
p1176
I1
sS'on'
p1177
I364
sS'dealings'
p1178
I1
sS'opposing'
p1179
I1
sS'labelled'
p1180
I1
sS'baby'
p1181
I2
sS'antichrist'
p1182
I1
sS'charity'
p1183
I1
sS'fulfils'
p1184
I1
sS'this'
p1185
I39
sS'challenge'
p1186
I4
sS'insists'
p1187
I2
sS'pour'
p1188
I3
sS'prompts'
p1189
I3
sS'wedge'
p1190
I1
sS'weaker'
p1191
I1
sS'lock'
p1192
I3
sS'slim'
p1193
I1
sS'trumped'
p1194
I6
sS'high'
p1195
I8
sS'bend'
p1196
I1
sS'slip'
p1197
I1
sS'blvd'
p1198
I2
sS'trumpet'
p1199
I2
sS'molodets'
p1200
I1
sS'weaken'
p1201
I1
sS'comedy'
p1202
I2
sS'establishment'
p1203
I5
sS'blocks'
p1204
I5
sS'hitches'
p1205
I1
sS'await'
p1206
I1
sS'tied'
p1207
I3
sS'pigs'
p1208
I1
sS'fits'
p1209
I1
sS'ties'
p1210
I14
sS'counter'
p1211
I3
sS'reminders'
p1212
I1
sS'robot'
p1213
I2
sS'allow'
p1214
I5
sS'volunteers'
p1215
I1
sS'trumpism'
p1216
I1
sS'houston'
p1217
I2
sS'comms'
p1218
I2
sS'move'
p1219
I20
sS'directs'
p1220
I1
sS'warren'
p1221
I1
sS'perfect'
p1222
I5
sS'navajos'
p1223
I2
sS'chosen'
p1224
I2
sS'thieves'
p1225
I1
sS'2018'
p1226
I1
sS'stalled'
p1227
I1
sS'2015'
p1228
I1
sS'puerto'
p1229
I7
sS'2017'
p1230
I1
sS'2016'
p1231
I10
sS'elites'
p1232
I7
sS'2012'
p1233
I1
sS'morgen'
p1234
I1
sS'warmongers'
p1235
I1
sS'snake'
p1236
I1
sS'outlines'
p1237
I3
sS'presidential'
p1238
I29
sS'autistic'
p1239
I1
sS'beijings'
p1240
I1
sS'denzel'
p1241
I1
sS'truth'
p1242
I6
sS'rising'
p1243
I1
sS'glasses'
p1244
I1
sS'bump'
p1245
I2
sS'agriculture'
p1246
I1
sS'matrix'
p1247
I1
sS'rigging'
p1248
I2
sS'hilarious'
p1249
I4
sS'burka'
p1250
I1
sS'shut'
p1251
I3
sS'yawns'
p1252
I1
sS'temps'
p1253
I1
sS'grilled'
p1254
I1
sS'regulators'
p1255
I1
sS'surely'
p1256
I2
sS'scary'
p1257
I2
sS'spill'
p1258
I1
sS'could'
p1259
I53
sS'put'
p1260
I12
sS'david'
p1261
I14
sS'hindus'
p1262
I1
sS'davis'
p1263
I1
sS'repeats'
p1264
I1
sS'scare'
p1265
I3
sS'yells'
p1266
I1
sS'owned'
p1267
I1
sS'alleged'
p1268
I1
sS'khans'
p1269
I1
sS'blows'
p1270
I3
sS'prank'
p1271
I1
sS'start'
p1272
I6
sS'detailing'
p1273
I1
sS'system'
p1274
I10
sS'seselja'
p1275
I1
sS'interests'
p1276
I2
sS'testing'
p1277
I2
sS'stars'
p1278
I2
sS'depressing'
p1279
I2
sS'aryan'
p1280
I1
sS'elite'
p1281
I3
sS'steel'
p1282
I1
sS'roberts'
p1283
I6
sS'psalm'
p1284
I1
sS'briefing'
p1285
I2
sS'devotion'
p1286
I1
sS'accusing'
p1287
I2
sS'false'
p1288
I1
sS'partnership'
p1289
I1
sS'defending'
p1290
I3
sS'demolishes'
p1291
I1
sS'koreas'
p1292
I1
sS'marais'
p1293
I1
sS'chief'
p1294
I27
sS'ministerien'
p1295
I1
sS'korean'
p1296
I8
sS'latino'
p1297
I1
sS'worldwide'
p1298
I2
sS'vist'
p1299
I1
sS'fidel'
p1300
I1
sS'bookooball'
p1301
I1
sS'caputo'
p1302
I1
sS'courtesy'
p1303
I1
sS'visa'
p1304
I10
sS'prove'
p1305
I3
sS'stronger'
p1306
I1
sS'thanksgiving'
p1307
I2
sS'counted'
p1308
I1
sS'fact'
p1309
I5
sS'atmosphere'
p1310
I1
sS'disbanded'
p1311
I1
sS'vacancy'
p1312
I1
sS'bring'
p1313
I4
sS'manchester'
p1314
I1
sS'rough'
p1315
I1
sS'economist'
p1316
I1
sS'brink'
p1317
I1
sS'taps'
p1318
I1
sS'jay'
p1319
I1
sS'jaw'
p1320
I1
sS'should'
p1321
I32
sS'tape'
p1322
I8
sS'jab'
p1323
I2
sS'hope'
p1324
I3
sS'meant'
p1325
I1
sS'handle'
p1326
I1
sS'means'
p1327
I4
sS'lucky'
p1328
I1
sS'impeachment'
p1329
I3
sS'taxes'
p1330
I5
sS'reid'
p1331
I4
sS'ohio'
p1332
I6
sS'temporarily'
p1333
I1
sS'horns'
p1334
I2
sS'travis'
p1335
I1
sS'packed'
p1336
I1
sS'wird'
p1337
I1
sS'wire'
p1338
I15
sS'nuclear'
p1339
I19
sS'rolled'
p1340
I1
sS'email'
p1341
I14
sS'levinthal'
p1342
I1
sS'classless'
p1343
I1
sS'explosive'
p1344
I3
sS'scolds'
p1345
I3
sS'attaquer'
p1346
I1
sS'lawsuit'
p1347
I9
sS'trumpf'
p1348
I1
sS'restrictions'
p1349
I1
sS'pimping'
p1350
I1
sS'invited'
p1351
I1
sS'whispered'
p1352
I1
sS'drug'
p1353
I2
sS'figures'
p1354
I1
sS'trumps'
p1355
I223
sS'heart'
p1356
I1
sS'invites'
p1357
I3
sS'ck'
p1358
I3
sS'adjusted'
p1359
I1
sS'wtf'
p1360
I1
sS'malcolm'
p1361
I22
sS'turncoats'
p1362
I1
sS'winning'
p1363
I12
sS'kahn'
p1364
I2
sS'blatant'
p1365
I1
sS'islamphobic'
p1366
I1
sS'waste'
p1367
I1
sS'erdogan'
p1368
I1
sS'hateful'
p1369
I1
sS'atlanta'
p1370
I1
sS'spain'
p1371
I1
sS'runway'
p1372
I2
sS'rigged'
p1373
I19
sS've'
p1374
I5
sS'adminstration'
p1375
I1
sS'site'
p1376
I1
sS'vp'
p1377
I4
sS'vs'
p1378
I9
sS'optimistic'
p1379
I1
sS'scotus'
p1380
I1
sS'terrorist'
p1381
I5
sS'juan'
p1382
I1
sS'romance'
p1383
I1
sS'terrorism'
p1384
I5
sS'paula'
p1385
I1
sS'ball'
p1386
I3
sS'columbia'
p1387
I1
sS'emotionally'
p1388
I1
sS'bald'
p1389
I1
sS'phd'
p1390
I1
sS'paving'
p1391
I1
sS'afghan'
p1392
I2
sS'identity'
p1393
I2
sS'off'
p1394
I27
sS'colour'
p1395
I1
sS'indonesia'
p1396
I3
sS'zervos'
p1397
I1
sS'audio'
p1398
I3
sS'newest'
p1399
I1
sS'less'
p1400
I3
sS'moments'
p1401
I8
sS'predicts'
p1402
I7
sS'paul'
p1403
I17
sS'wei'
p1404
I1
sS'arrest'
p1405
I2
sS'crack'
p1406
I1
sS'scoundrel'
p1407
I1
sS'increased'
p1408
I1
sS'government'
p1409
I14
sS'haus'
p1410
I1
sS'falters'
p1411
I1
sS'cruz'
p1412
I1
sS'five'
p1413
I3
sS'fools'
p1414
I1
sS'bigotry'
p1415
I1
sS'whatve'
p1416
I1
sS'become'
p1417
I5
sS'assasination'
p1418
I1
sS'replacement'
p1419
I1
sS'opioid'
p1420
I3
sS'gaining'
p1421
I1
sS'muro'
p1422
I1
sS'daylight'
p1423
I1
sS'ballot'
p1424
I1
sS'literally'
p1425
I4
sS'avoid'
p1426
I3
sS'demonstrators'
p1427
I2
sS'does'
p1428
I19
sS'keystone'
p1429
I1
sS'postpresidency'
p1430
I1
sS'avoir'
p1431
I2
sS'blowing'
p1432
I2
sS'schedule'
p1433
I1
sS'pressure'
p1434
I3
sS'targeting'
p1435
I1
sS'stage'
p1436
I12
sS'sister'
p1437
I1
sS'puts'
p1438
I5
sS'union'
p1439
I1
sS'whistles'
p1440
I2
sS'concession'
p1441
I1
sS'deplaned'
p1442
I1
sS'alliance'
p1443
I2
sS'libertarians'
p1444
I1
sS'pussy'
p1445
I2
sS'booed'
p1446
I1
sS'catherine'
p1447
I1
sS'commitment'
p1448
I3
sS'referendum'
p1449
I1
sS'crooked'
p1450
I4
sS'charities'
p1451
I1
sS'negotiable'
p1452
I1
sS'housing'
p1453
I3
sS'spots'
p1454
I2
sS'doing'
p1455
I1
sS'hawkishness'
p1456
I1
sS'flynn'
p1457
I16
sS'fiscal'
p1458
I1
sS'delivery'
p1459
I2
sS'construction'
p1460
I1
sS'delivers'
p1461
I4
sS'tossed'
p1462
I1
sS'places'
p1463
I2
sS'official'
p1464
I12
sS'problem'
p1465
I3
sS'meyers'
p1466
I2
sS'cordial'
p1467
I1
sS'recognize'
p1468
I1
sS'ins'
p1469
I3
sS'replica'
p1470
I1
sS'ine'
p1471
I1
sS'jesse'
p1472
I1
sS'compared'
p1473
I1
sS'deadly'
p1474
I1
sS'compares'
p1475
I1
sS'details'
p1476
I4
sS'behold'
p1477
I1
sS'tooney'
p1478
I1
sS'francisco'
p1479
I1
sS'matt'
p1480
I2
sS'psychotics'
p1481
I1
sS'chance'
p1482
I8
sS'badass'
p1483
I2
sS'repeal'
p1484
I4
sS'exposure'
p1485
I1
sS'searches'
p1486
I1
sS'rule'
p1487
I2
sS'compete'
p1488
I1
sS'rural'
p1489
I1
sS'defend'
p1490
I4
sS'manaforts'
p1491
I1
sS'rapid'
p1492
I1
sS'controversial'
p1493
I3
sS'saved'
p1494
I1
sS'stinks'
p1495
I1
sS'votes'
p1496
I16
sS'voter'
p1497
I36
sS'dazu'
p1498
I1
sS'groundwork'
p1499
I1
sS'edward'
p1500
I2
sS'voted'
p1501
I5
sS'whack'
p1502
I1
sS'mania'
p1503
I1
sS'exporters'
p1504
I1
sS'tickets'
p1505
I1
sS'robart'
p1506
I1
sS'investigator'
p1507
I1
sS'roadblock'
p1508
I1
sS'math'
p1509
I2
sS'triumph'
p1510
I1
sS'phones'
p1511
I1
sS'chef'
p1512
I3
sS'follow'
p1513
I3
sS'draintheswamp'
p1514
I1
sS'machines'
p1515
I7
sS'horcruxes'
p1516
I1
sS'churches'
p1517
I1
sS'officially'
p1518
I1
sS'told'
p1519
I7
sS'sinks'
p1520
I1
sS'richest'
p1521
I1
sS'pursuit'
p1522
I1
sS'obtained'
p1523
I1
sS'daughter'
p1524
I9
sS'employees'
p1525
I1
sS'usps'
p1526
I1
sS'envoy'
p1527
I2
sS'bunker'
p1528
I1
sS'highly'
p1529
I1
sS'uncivil'
p1530
I1
sS'total'
p1531
I1
sS'jinping'
p1532
I5
sS'plot'
p1533
I1
sS'palestinian'
p1534
I4
sS'gloss'
p1535
I1
sS'negative'
p1536
I4
sS'seraient'
p1537
I1
sS'indiana'
p1538
I1
sS'abusing'
p1539
I1
sS'dismantled'
p1540
I1
sS'aware'
p1541
I1
sS'allies'
p1542
I9
sS'blocking'
p1543
I1
sS'1990'
p1544
I1
sS'word'
p1545
I4
sS'wore'
p1546
I1
sS'work'
p1547
I11
sS'eclipse'
p1548
I2
sS'refusing'
p1549
I3
sS'theories'
p1550
I1
sS'cuddle'
p1551
I1
sS'era'
p1552
I14
sS'erb'
p1553
I1
sS'spicers'
p1554
I1
sS'bennett'
p1555
I2
sS'india'
p1556
I1
sS'heartless'
p1557
I1
sS'walsh'
p1558
I2
sS'cites'
p1559
I1
sS'recovery'
p1560
I2
sS'provide'
p1561
I2
sS'papadopoulos'
p1562
I3
sS'song'
p1563
I3
sS'nuts'
p1564
I1
sS'moron'
p1565
I1
sS'resignation'
p1566
I3
sS'coined'
p1567
I1
sS'after'
p1568
I89
sS'suing'
p1569
I1
sS'law'
p1570
I13
sS'las'
p1571
I6
sS'egged'
p1572
I1
sS'greek'
p1573
I1
sS'rogue'
p1574
I1
sS'green'
p1575
I4
sS'worst'
p1576
I7
sS'order'
p1577
I34
sS'zed'
p1578
I1
sS'jabs'
p1579
I1
sS'japan'
p1580
I11
sS'mayor'
p1581
I3
sS'bombing'
p1582
I1
sS'licitation'
p1583
I1
sS'highlights'
p1584
I2
sS'avocado'
p1585
I1
sS'christie'
p1586
I1
sS'production'
p1587
I4
sS'split'
p1588
I3
sS'versus'
p1589
I1
sS'then'
p1590
I6
sS'them'
p1591
I11
sS'affected'
p1592
I2
sS'bans'
p1593
I4
sS'safe'
p1594
I3
sS'break'
p1595
I5
sS'bang'
p1596
I1
sS'shameful'
p1597
I1
sS'they'
p1598
I36
sS'457'
p1599
I1
sS'lifelong'
p1600
I1
sS'bank'
p1601
I7
sS'classified'
p1602
I3
sS'l'
p1603
I1
sS'axing'
p1604
I1
sS'370'
p1605
I1
sS'european'
p1606
I4
sS'councils'
p1607
I1
sS'crimes'
p1608
I2
sS'livre'
p1609
I1
sS'whining'
p1610
I2
sS'network'
p1611
I11
sS'fellowship'
p1612
I1
sS'100mln'
p1613
I1
sS'daniel'
p1614
I10
sS'sliding'
p1615
I1
sS'barrier'
p1616
I1
sS'veto'
p1617
I1
sS'certifies'
p1618
I1
sS'kilcullens'
p1619
I1
sS'mourning'
p1620
I2
sS'admits'
p1621
I7
sS'disputes'
p1622
I2
sS'muller'
p1623
I1
sS'elecciones'
p1624
I1
sS'created'
p1625
I1
sS'refugee'
p1626
I22
sS'uncompliant'
p1627
I1
sS'creates'
p1628
I1
sS'renew'
p1629
I1
sS'oppose'
p1630
I2
sS'footsteps'
p1631
I1
sS'clouding'
p1632
I1
sS'bloomberg'
p1633
I1
sS'another'
p1634
I11
sS'comic'
p1635
I1
sS'electronic'
p1636
I3
sS'rejects'
p1637
I5
sS'approximately'
p1638
I1
sS'rates'
p1639
I1
sS'john'
p1640
I15
sS'dogs'
p1641
I2
sS'damaging'
p1642
I1
sS'toronto'
p1643
I1
sS'mercy'
p1644
I1
sS'trumponomics'
p1645
I1
sS'fuelled'
p1646
I1
sS'target'
p1647
I4
sS'tackles'
p1648
I1
sS'guilt'
p1649
I1
sS'hacking'
p1650
I6
sS'powers'
p1651
I3
sS'failing'
p1652
I1
sS'assange'
p1653
I9
sS'forced'
p1654
I1
sS'laden'
p1655
I1
sS'casual'
p1656
I1
sS'practices'
p1657
I1
sS'snowflake'
p1658
I1
sS'maiden'
p1659
I1
sS'bruce'
p1660
I4
sS'what'
p1661
I87
sS'germany'
p1662
I3
sS'swamp'
p1663
I5
sS'voting'
p1664
I30
sS'notion'
p1665
I1
sS'reserve'
p1666
I3
sS'applauds'
p1667
I1
sS'writeoff'
p1668
I1
sS'cuban'
p1669
I1
sS'panned'
p1670
I1
sS'hrw'
p1671
I1
sS'screening'
p1672
I1
sS'do'
p1673
I20
sS'de'
p1674
I11
sS'dc'
p1675
I10
sS'haunted'
p1676
I1
sS'onboard'
p1677
I1
sS'du'
p1678
I2
sS'dr'
p1679
I9
sS'runs'
p1680
I1
sS'covering'
p1681
I2
sS'unmet'
p1682
I1
sS'steal'
p1683
I11
sS'secretary'
p1684
I19
sS'depends'
p1685
I1
sS'dillary'
p1686
I1
sS'cattle'
p1687
I1
sS'discussions'
p1688
I1
sS'co2'
p1689
I1
sS'draws'
p1690
I4
sS'mitch'
p1691
I1
sS'away'
p1692
I4
sS'cooperation'
p1693
I2
sS'props'
p1694
I1
sS'drawn'
p1695
I1
sS'encounters'
p1696
I1
sS'accord'
p1697
I3
sS'wa'
p1698
I2
sS'downgrades'
p1699
I1
sS'wh'
p1700
I1
sS'ww'
p1701
I1
sS'gays'
p1702
I2
sS'admirals'
p1703
I3
sS'travellers'
p1704
I2
sS'electing'
p1705
I1
sS'cop'
p1706
I3
sS'climate'
p1707
I36
sS'cor'
p1708
I1
sS'coy'
p1709
I1
sS'cox'
p1710
I1
sS'ill'
p1711
I1
sS'steer'
p1712
I1
sS'receives'
p1713
I5
sS'brad'
p1714
I2
sS'requests'
p1715
I2
sS'com'
p1716
I1
sS'con'
p1717
I1
sS'tough'
p1718
I4
sS'tony'
p1719
I1
sS'speak'
p1720
I4
sS'strong'
p1721
I3
sS'condemned'
p1722
I1
sS'sachs'
p1723
I1
sS'gillibrand'
p1724
I2
sS'families'
p1725
I1
sS'easy'
p1726
I1
sS'attacked'
p1727
I6
sS'attacker'
p1728
I1
sS'convening'
p1729
I1
sS'east'
p1730
I12
sS'publicly'
p1731
I1
sS'launches'
p1732
I3
sS'air'
p1733
I8
sS'aim'
p1734
I6
sS'aid'
p1735
I8
sS'property'
p1736
I2
sS'launched'
p1737
I1
sS'mistake'
p1738
I3
sS'cons'
p1739
I1
sS'crowning'
p1740
I1
sS'dumped'
p1741
I1
sS'skipping'
p1742
I1
sS'confirmed'
p1743
I7
sS'deepens'
p1744
I2
sS'avoids'
p1745
I3
sS'indictment'
p1746
I1
sS'independent'
p1747
I1
sS'blames'
p1748
I7
sS'hang'
p1749
I1
sS'evil'
p1750
I4
sS'hand'
p1751
I4
sS'documents'
p1752
I1
sS'blamed'
p1753
I1
sS'knockoff'
p1754
I1
sS'kept'
p1755
I1
sS'priebus'
p1756
I5
sS'resettlement'
p1757
I3
sS'hispanic'
p1758
I2
sS'contact'
p1759
I4
sS'the'
p1760
I519
sS'camps'
p1761
I1
sS'musical'
p1762
I1
sS'epa'
p1763
I2
sS'photo'
p1764
I7
sS'quotes'
p1765
I1
sS'thanks'
p1766
I11
sS'victim'
p1767
I3
sS'chaffetz'
p1768
I1
sS'family'
p1769
I16
sS'cornell'
p1770
I1
sS'similarities'
p1771
I2
sS'board'
p1772
I2
sS'righteous'
p1773
I1
sS'mocked'
p1774
I2
sS'insensitive'
p1775
I1
sS'rnc'
p1776
I1
sS'arab'
p1777
I4
sS'jekyll'
p1778
I1
sS'celebrates'
p1779
I2
sS'bastards'
p1780
I1
sS'barge'
p1781
I1
sS'zulema'
p1782
I1
sS'night'
p1783
I13
sS'security'
p1784
I22
sS'antique'
p1785
I1
sS'honored'
p1786
I1
sS'lashes'
p1787
I7
sS'sends'
p1788
I4
sS'denies'
p1789
I11
sS'congratulate'
p1790
I2
sS'purple'
p1791
I1
sS'comments'
p1792
I31
sS'mulls'
p1793
I1
sS'asking'
p1794
I2
sS'denied'
p1795
I2
sS'beating'
p1796
I4
sS'provocations'
p1797
I1
sS'post'
p1798
I14
sS'banked'
p1799
I2
sS'coral'
p1800
I1
sS'months'
p1801
I7
sS'accepts'
p1802
I3
sS'wasting'
p1803
I1
sS'methepeople'
p1804
I2
sS'profession'
p1805
I1
sS'lewd'
p1806
I1
sS'transcript'
p1807
I5
sS'fight'
p1808
I13
sS'way'
p1809
I11
sS'was'
p1810
I37
sS'war'
p1811
I43
sS'lowest'
p1812
I1
sS'becoming'
p1813
I1
sS'garages'
p1814
I1
sS'true'
p1815
I9
sS'reset'
p1816
I5
sS'isis'
p1817
I8
sS'veiled'
p1818
I2
sS'emin'
p1819
I1
sS'cloughley'
p1820
I1
sS'vatican'
p1821
I3
sS'emotional'
p1822
I1
sS'takei'
p1823
I2
sS'repartis'
p1824
I1
sS'promises'
p1825
I24
sS'moore'
p1826
I13
sS'scandalous'
p1827
I1
sS'israel'
p1828
I20
sS'evidence'
p1829
I6
sS'promised'
p1830
I5
sS'face'
p1831
I15
sS'daca'
p1832
I7
sS'stake'
p1833
I1
sS'reality'
p1834
I6
sS'jong'
p1835
I5
sS'holding'
p1836
I3
sS'test'
p1837
I7
sS'unwilling'
p1838
I1
sS'tess'
p1839
I1
sS'brothers'
p1840
I2
sS'irma'
p1841
I4
sS'welcome'
p1842
I7
sS'update'
p1843
I3
sS'balloon'
p1844
I2
sS'together'
p1845
I4
sS'classmate'
p1846
I2
sS'songs'
p1847
I1
sS'switched'
p1848
I3
sS'dance'
p1849
I1
sS'global'
p1850
I14
sS'fabricated'
p1851
I2
sS'candlelight'
p1852
I1
sS'mcgahn'
p1853
I1
sS'battle'
p1854
I3
sS'zone'
p1855
I1
sS'obamacare'
p1856
I16
sS'devotes'
p1857
I1
sS'terror'
p1858
I4
sS'dartmouth'
p1859
I1
sS'huma'
p1860
I1
sS'protestors'
p1861
I2
sS'brown'
p1862
I2
sS'charles'
p1863
I1
sS'vegas'
p1864
I5
sS'robarts'
p1865
I1
sS'anonymous'
p1866
I1
sS'trouble'
p1867
I5
sS'blast'
p1868
I2
sS'responders'
p1869
I3
sS'photoshops'
p1870
I1
sS'turns'
p1871
I6
sS'gun'
p1872
I4
sS'p'
p1873
I2
sS'waxworks'
p1874
I1
sS'guy'
p1875
I3
sS'qanda'
p1876
I2
sS'revolution'
p1877
I16
sS'discover'
p1878
I1
sS'coalition'
p1879
I1
sS'cost'
p1880
I5
sS'rapist'
p1881
I1
sS'appear'
p1882
I3
sS'shares'
p1883
I3
sS'cambriol'
p1884
I1
sS'shared'
p1885
I1
sS'appeal'
p1886
I3
sS'cranston'
p1887
I1
sS'supporting'
p1888
I4
sS'inauguration'
p1889
I27
sS'muslim'
p1890
I12
sS'whiteness'
p1891
I1
sS'smearing'
p1892
I1
sS'teaches'
p1893
I2
sS'appears'
p1894
I6
sS'change'
p1895
I27
sS'sending'
p1896
I1
sS'incoming'
p1897
I1
sS'trial'
p1898
I1
sS'franklin'
p1899
I1
sS'patriotic'
p1900
I1
sS'airbase'
p1901
I1
sS'pillow'
p1902
I1
sS'retired'
p1903
I2
sS'fbi'
p1904
I60
sS'softens'
p1905
I1
sS'market'
p1906
I12
sS'podesta'
p1907
I2
sS'resigns'
p1908
I2
sS'angela'
p1909
I3
sS'live'
p1910
I16
sS'shaken'
p1911
I1
sS'club'
p1912
I2
sS'sanctimony'
p1913
I1
sS'migrants'
p1914
I1
sS'defeats'
p1915
I1
sS'car'
p1916
I9
sS'cap'
p1917
I2
sS'ibd'
p1918
I1
sS'gathers'
p1919
I1
sS'can'
p1920
I31
sS'cam'
p1921
I1
sS'trans'
p1922
I1
sS'spy'
p1923
I4
sS'supremacy'
p1924
I1
sS'heard'
p1925
I1
sS'clothing'
p1926
I1
sS'productive'
p1927
I2
sS'bankrupt'
p1928
I1
sS'fuming'
p1929
I1
sS'flourishes'
p1930
I1
sS'magafeed'
p1931
I3
sS'write'
p1932
I1
sS'economy'
p1933
I10
sS'escalate'
p1934
I1
sS'averted'
p1935
I1
sS'osborne'
p1936
I1
sS'commit'
p1937
I2
sS'nomination'
p1938
I2
sS'remember'
p1939
I4
sS'futures'
p1940
I1
sS'jokester'
p1941
I1
sS'deactivated'
p1942
I2
sS'brain'
p1943
I1
sS'statistical'
p1944
I1
sS'still'
p1945
I7
sS'birds'
p1946
I1
sS'trumpocalypse'
p1947
I1
sS'testimony'
p1948
I4
sS'atonement'
p1949
I1
sS'non'
p1950
I6
sS'halt'
p1951
I1
sS'barron'
p1952
I2
sS'influencer'
p1953
I1
sS'taliban'
p1954
I1
sS'half'
p1955
I1
sS'not'
p1956
I84
sS'now'
p1957
I29
sS'hall'
p1958
I2
sS'wont'
p1959
I20
sS'gorsuch'
p1960
I6
sS'james'
p1961
I25
sS'drop'
p1962
I4
sS'einigung'
p1963
I1
sS'entirely'
p1964
I2
sS'sot'
p1965
I1
sS'el'
p1966
I4
sS'domain'
p1967
I1
sS'en'
p1968
I3
sS'fired'
p1969
I4
sS'challenged'
p1970
I2
sS'ed'
p1971
I1
sS'challenges'
p1972
I4
sS'fires'
p1973
I9
sS'replay'
p1974
I1
sS'ex'
p1975
I9
sS'year'
p1976
I16
sS'eu'
p1977
I4
sS'et'
p1978
I2
sS'happen'
p1979
I3
sS'teams'
p1980
I1
sS'es'
p1981
I1
sS'er'
p1982
I2
sS'space'
p1983
I2
sS'antiwar'
p1984
I1
sS'irony'
p1985
I1
sS'increase'
p1986
I3
sS'shows'
p1987
I15
sS'existentialism'
p1988
I1
sS'gaffe'
p1989
I1
sS'ominous'
p1990
I1
sS'marine'
p1991
I1
sS'gofundme'
p1992
I1
sS'card'
p1993
I4
sS'care'
p1994
I3
sS'sceptic'
p1995
I1
sS'transition'
p1996
I11
sS'breitbart'
p1997
I5
sS'british'
p1998
I3
sS'lindsey'
p1999
I1
sS'cartooning'
p2000
I1
sS'blind'
p2001
I1
sS'xi'
p2002
I13
sS'xl'
p2003
I1
sS'conform'
p2004
I1
sS'flipping'
p2005
I2
sS'yourself'
p2006
I1
sS'impossible'
p2007
I2
sS'message'
p2008
I10
sS'size'
p2009
I1
sS'truthfully'
p2010
I1
sS'silent'
p2011
I1
sS'caught'
p2012
I13
sS'breed'
p2013
I1
sS'carson'
p2014
I1
sS'checker'
p2015
I1
sS'tragic'
p2016
I1
sS'friend'
p2017
I4
sS'that'
p2018
I63
sS'appreciates'
p2019
I1
sS'than'
p2020
I28
sS'television'
p2021
I2
sS'optimism'
p2022
I4
sS'disavowing'
p2023
I1
sS'investors'
p2024
I2
sS'craig'
p2025
I4
sS'premier'
p2026
I1
sS'editors'
p2027
I1
sS'decapitated'
p2028
I1
sS'anger'
p2029
I2
sS'recover'
p2030
I2
sS'veteran'
p2031
I1
sS'deux'
p2032
I1
sS'online'
p2033
I5
sS'begin'
p2034
I3
sS'infiltrators'
p2035
I1
sS'price'
p2036
I3
sS'america'
p2037
I74
sS'michelle'
p2038
I6
sS'forever'
p2039
I3
sS'turks'
p2040
I1
sS'reform'
p2041
I4
sS'implications'
p2042
I1
sS'alertthedaycarestaff'
p2043
I1
sS'filing'
p2044
I1
sS'german'
p2045
I1
sS'ground'
p2046
I1
sS'adolf'
p2047
I1
sS'only'
p2048
I10
sS'pollsters'
p2049
I2
sS'fort'
p2050
I1
sS'mission'
p2051
I4
sS'honours'
p2052
I1
sS'celebrate'
p2053
I1
sS'unidos'
p2054
I1
sS'bigly'
p2055
I1
sS'isnt'
p2056
I4
sS'scientist'
p2057
I2
sS'losers'
p2058
I2
sS'reels'
p2059
I1
sS'concert'
p2060
I2
sS'physically'
p2061
I1
sS'icbm'
p2062
I1
sS'ends'
p2063
I6
sS'elected'
p2064
I21
sS'staunch'
p2065
I1
sS'sport'
p2066
I1
sS'concern'
p2067
I1
sS'israeli'
p2068
I8
sS'incite'
p2069
I2
sS'3'
p2070
I18
sS'between'
p2071
I17
sS'israels'
p2072
I5
sS'import'
p2073
I1
sS'islam'
p2074
I5
sS'notice'
p2075
I1
sS'heureux'
p2076
I1
sS'blame'
p2077
I7
sS'hurts'
p2078
I1
sS'article'
p2079
I1
sS'comey'
p2080
I34
sS'kaine'
p2081
I1
sS'comes'
p2082
I5
sS'bedouin'
p2083
I1
sS'learning'
p2084
I1
sS'proved'
p2085
I2
sS'oliver'
p2086
I1
sS'cares'
p2087
I3
sS'rebuild'
p2088
I2
sS'informed'
p2089
I1
sS'dictator'
p2090
I1
sS'dangers'
p2091
I1
sS'charlottesville'
p2092
I14
sS'wounds'
p2093
I1
sS'suspected'
p2094
I2
sS'realities'
p2095
I2
sS'developing'
p2096
I1
sS'these'
p2097
I9
sS'crowley'
p2098
I1
sS'landslide'
p2099
I7
sS'ein'
p2100
I1
sS'zenith'
p2101
I2
sS'ramp'
p2102
I1
sS'commander'
p2103
I4
sS'canceled'
p2104
I1
sS'embrace'
p2105
I2
sS'return'
p2106
I2
sS'stickers'
p2107
I1
sS'worry'
p2108
I1
sS'media'
p2109
I54
sS'ceo'
p2110
I6
sS'tater'
p2111
I1
sS'inquiry'
p2112
I3
sS'angered'
p2113
I1
sS'bigoted'
p2114
I1
sS'respected'
p2115
I1
sS'fruit'
p2116
I1
sS'tradition'
p2117
I4
sS'mentally'
p2118
I1
sS'charges'
p2119
I4
sS'constitutional'
p2120
I2
sS'congressmen'
p2121
I1
sS'charged'
p2122
I4
sS'noam'
p2123
I2
sS'shouts'
p2124
I1
sS'wrecks'
p2125
I1
sS'touch'
p2126
I1
sS'tirade'
p2127
I3
sS'death'
p2128
I6
sS'thinking'
p2129
I2
sS'treatment'
p2130
I2
sS'versa'
p2131
I1
sS'momentum'
p2132
I1
sS'real'
p2133
I10
sS'bryan'
p2134
I1
sS'rules'
p2135
I5
sS'stung'
p2136
I1
sS'early'
p2137
I8
sS'symbolism'
p2138
I2
sS'using'
p2139
I4
sS'rebecca'
p2140
I2
sS'endorses'
p2141
I5
sS'miracle'
p2142
I1
sS't'
p2143
I9
sS'endorsed'
p2144
I6
sS'cisco'
p2145
I1
sS'exposed'
p2146
I4
sS'exposes'
p2147
I1
sS'oscars'
p2148
I1
sS'viral'
p2149
I5
sS'recorded'
p2150
I1
sS'conservative'
p2151
I10
sS'deficit'
p2152
I1
sS'hustle'
p2153
I1
sS'assembly'
p2154
I1
sS'business'
p2155
I16
sS'unease'
p2156
I1
sS'barrie'
p2157
I1
sS'assemble'
p2158
I1
sS'francis'
p2159
I1
sS'handsomest'
p2160
I1
sS'throw'
p2161
I2
sS'central'
p2162
I1
sS'ideology'
p2163
I1
sS'wolf'
p2164
I1
sS'underway'
p2165
I1
sS'deranged'
p2166
I2
sS'outlook'
p2167
I9
sS'protests'
p2168
I26
sS'persecution'
p2169
I1
sS'elementary'
p2170
I1
sS'your'
p2171
I10
sS'intervention'
p2172
I1
sS'prepare'
p2173
I3
sS'lol'
p2174
I3
sS'los'
p2175
I1
sS'low'
p2176
I6
sS'lot'
p2177
I2
sS'assumes'
p2178
I1
sS'jones'
p2179
I4
sS'delayed'
p2180
I1
sS'gunners'
p2181
I1
sS'farage'
p2182
I4
sS'pitched'
p2183
I1
sS'trying'
p2184
I12
sS'hire'
p2185
I2
sS'fraud'
p2186
I15
sS'describe'
p2187
I1
sS'mover'
p2188
I1
sS'moves'
p2189
I2
sS'gambling'
p2190
I1
sS'you'
p2191
I65
sS'forcing'
p2192
I1
sS'poor'
p2193
I3
sS'poop'
p2194
I1
sS'torched'
p2195
I1
sS'podium'
p2196
I1
sS'coverage'
p2197
I5
sS'building'
p2198
I3
sS'97yo'
p2199
I1
sS'repay'
p2200
I2
sS'overseas'
p2201
I4
sS'bolton'
p2202
I2
sS'banishment'
p2203
I1
sS'since'
p2204
I11
sS'pointing'
p2205
I2
sS'amtsantritt'
p2206
I1
sS'unrest'
p2207
I2
sS'deadline'
p2208
I1
sS'messy'
p2209
I1
sS'religious'
p2210
I1
sS'griffin'
p2211
I1
sS'pledges'
p2212
I3
sS'very'
p2213
I11
sS'horror'
p2214
I2
sS'verb'
p2215
I1
sS'louis'
p2216
I3
sS'instagram'
p2217
I3
sS'fence'
p2218
I3
sS'streets'
p2219
I5
sS'heralds'
p2220
I1
sS'pokies'
p2221
I1
sS'hamper'
p2222
I1
sS'witnesses'
p2223
I1
sS'priming'
p2224
I1
sS'learned'
p2225
I2
sS'turmoil'
p2226
I2
sS'iran'
p2227
I21
sS'recruits'
p2228
I2
sS'answers'
p2229
I1
sS'suicide'
p2230
I3
sS'iraq'
p2231
I1
sS'ahead'
p2232
I18
sS'inspired'
p2233
I1
sS'whine'
p2234
I1
sS'creepy'
p2235
I2
sS'popes'
p2236
I1
sS'soldier'
p2237
I1
sS'cathy'
p2238
I1
sS'katehon'
p2239
I4
sS'poroshenko'
p2240
I1
sS'aspi'
p2241
I1
sS'glitch'
p2242
I1
sS'jrs'
p2243
I4
sS'globes'
p2244
I2
sS'responsabilidad'
p2245
I1
sS'countdown'
p2246
I1
sS'khan'
p2247
I2
sS'takes'
p2248
I22
sS'iraqi'
p2249
I2
sS'revelation'
p2250
I1
sS'bash'
p2251
I1
sS'mysterious'
p2252
I2
sS'authorization'
p2253
I1
sS'terminally'
p2254
I1
sS'thrown'
p2255
I1
sS'regrettable'
p2256
I1
sS'excuse'
p2257
I3
sS'broke'
p2258
I2
sS'rips'
p2259
I1
sS'arabella'
p2260
I1
sS'oversight'
p2261
I1
sS'minhaj'
p2262
I1
sS'sweeps'
p2263
I2
sS'pawns'
p2264
I1
sS'offended'
p2265
I1
sS'nine'
p2266
I2
sS'history'
p2267
I11
sS'superpreditors'
p2268
I1
sS'chlich'
p2269
I1
sS'pushes'
p2270
I4
sS'adviser'
p2271
I16
sS'boycott'
p2272
I2
sS'lacks'
p2273
I1
sS'clarke'
p2274
I2
sS'reject'
p2275
I2
sS'idaho'
p2276
I1
sS'voleurs'
p2277
I1
sS'ft'
p2278
I1
sS'tried'
p2279
I2
sS'rude'
p2280
I2
sS'triumphs'
p2281
I1
sS'idiocy'
p2282
I1
sS'tries'
p2283
I3
sS'rudy'
p2284
I1
sS'fl'
p2285
I2
sS'a'
p2286
I264
sS'read'
p2287
I2
sS'overnight'
p2288
I1
sS'bashing'
p2289
I4
sS'banks'
p2290
I1
sS'dream'
p2291
I3
sS'help'
p2292
I9
sS'soon'
p2293
I5
sS'held'
p2294
I6
sS'committee'
p2295
I4
sS'committed'
p2296
I4
sS'hell'
p2297
I2
sS'mcdonalds'
p2298
I3
sS'dummies'
p2299
I1
sS'nordstrom'
p2300
I3
sS'actually'
p2301
I3
sS'11yo'
p2302
I1
sS'radical'
p2303
I1
sS'fool'
p2304
I1
sS'pleads'
p2305
I1
sS'motivated'
p2306
I1
sS'food'
p2307
I1
sS'musket'
p2308
I5
sS'arsenal'
p2309
I1
sS'vomit'
p2310
I1
sS'starbucks'
p2311
I2
sS'sweeping'
p2312
I2
sS'yr'
p2313
I2
sS'desperately'
p2314
I2
sS'molotov'
p2315
I2
sS'capability'
p2316
I1
sS'stopped'
p2317
I1
sS'referred'
p2318
I1
sS'heavy'
p2319
I1
sS'neil'
p2320
I4
sS'haley'
p2321
I3
sS'accidentally'
p2322
I1
sS'beyond'
p2323
I6
sS'butthurt'
p2324
I2
sS'event'
p2325
I5
sS'dominates'
p2326
I2
sS'bali'
p2327
I1
sS'robert'
p2328
I6
sS'surrounded'
p2329
I2
sS'testify'
p2330
I4
sS'douglas'
p2331
I1
sS'dominated'
p2332
I2
sS'7'
p2333
I10
sS'issue'
p2334
I1
sS'ass'
p2335
I1
sS'asx'
p2336
I5
sS'reason'
p2337
I11
sS'dire'
p2338
I1
sS'ask'
p2339
I5
sS'matthews'
p2340
I1
sS'reprising'
p2341
I1
sS'turnout'
p2342
I2
sS'heroic'
p2343
I1
sS'launch'
p2344
I3
sS'terrible'
p2345
I2
sS'americas'
p2346
I3
sS'american'
p2347
I32
sS'expecting'
p2348
I1
sS'scouts'
p2349
I7
sS'syria'
p2350
I27
sS'apocalypse'
p2351
I1
sS'oppo'
p2352
I1
sS'farrakhan'
p2353
I1
sS'quiff'
p2354
I1
sS'reflected'
p2355
I1
sS'miss'
p2356
I7
sS'horse'
p2357
I1
sS'supremacists'
p2358
I2
sS'guaranteeing'
p2359
I1
sS'station'
p2360
I3
sS'handshakes'
p2361
I3
sS'shifted'
p2362
I4
sS'passed'
p2363
I1
sS'behind'
p2364
I17
sS'jordan'
p2365
I1
sS'signaling'
p2366
I1
sS'presstv'
p2367
I2
sS'apprentice'
p2368
I4
sS'kindly'
p2369
I1
sS'lament'
p2370
I1
sS'greg'
p2371
I3
sS'toward'
p2372
I1
sS'ousted'
p2373
I1
sS'shirts'
p2374
I1
sS'wasnt'
p2375
I3
sS'lie'
p2376
I6
sS'lib'
p2377
I2
sS'lin'
p2378
I1
sS'cave'
p2379
I1
sS'officers'
p2380
I2
sS'machado'
p2381
I1
sS'aggravating'
p2382
I1
sS'mexiko'
p2383
I1
sS'towards'
p2384
I3
sS'afghanistan'
p2385
I7
sS'approves'
p2386
I2
sS'macy'
p2387
I1
sS'sponsored'
p2388
I1
sS'approved'
p2389
I1
sS'salary'
p2390
I1
sS'reductress'
p2391
I1
sS'viciously'
p2392
I2
sS'mobile'
p2393
I1
sS'clear'
p2394
I3
sS'clean'
p2395
I6
sS'phenomenon'
p2396
I1
sS'stunned'
p2397
I3
sS'denuclearisation'
p2398
I1
sS'celebrities'
p2399
I4
sS'renegotiate'
p2400
I1
sS'justice'
p2401
I6
sS'flights'
p2402
I1
sS'randy'
p2403
I1
sS'darwin'
p2404
I2
sS'isolationist'
p2405
I1
sS'grannys'
p2406
I1
sS'zambia'
p2407
I1
sS'famous'
p2408
I1
sS'feels'
p2409
I1
sS'during'
p2410
I13
sS'catches'
p2411
I2
sS'axed'
p2412
I1
sS'withdrawal'
p2413
I4
sS'x'
p2414
I2
sS'patriotism'
p2415
I1
sS'manning'
p2416
I1
sS'oligarch'
p2417
I1
sS'close'
p2418
I3
sS'locals'
p2419
I2
sS'abedin'
p2420
I1
sS'wow'
p2421
I4
sS'won'
p2422
I19
sS'mcmaster'
p2423
I3
sS'probably'
p2424
I3
sS'missing'
p2425
I3
sS'turnbulls'
p2426
I3
sS'spray'
p2427
I1
sS'autocrats'
p2428
I1
sS'invisible'
p2429
I3
sS'both'
p2430
I9
sS'secrets'
p2431
I1
sS'minorities'
p2432
I2
sS'hackers'
p2433
I1
sS'jeff'
p2434
I8
sS'bench'
p2435
I1
sS'stamp'
p2436
I1
sS'implosion'
p2437
I1
sS'describes'
p2438
I3
sS'threaten'
p2439
I2
sS'dama'
p2440
I1
sS'sanders'
p2441
I10
sS'jesuit'
p2442
I2
sS'lived'
p2443
I2
sS'anthony'
p2444
I9
sS'lives'
p2445
I3
sS'pact'
p2446
I4
sS'look'
p2447
I16
sS'governor'
p2448
I2
sS'rope'
p2449
I1
sS'pace'
p2450
I1
sS'while'
p2451
I9
sS'transcripts'
p2452
I1
sS'engulf'
p2453
I1
sS'smacked'
p2454
I1
sS'voters'
p2455
I32
sS'hoax'
p2456
I1
sS'ready'
p2457
I9
sS'grant'
p2458
I1
sS'noose'
p2459
I1
sS'complicity'
p2460
I1
sS'shackle'
p2461
I1
sS'grand'
p2462
I2
sS'conflict'
p2463
I2
sS'used'
p2464
I4
sS'temporary'
p2465
I2
sS'ratings'
p2466
I3
sS'bonus'
p2467
I1
sS'distrubing'
p2468
I1
sS'000'
p2469
I5
sS'uses'
p2470
I7
sS'user'
p2471
I1
sS'decency'
p2472
I1
sS'revitalization'
p2473
I1
sS'brussels'
p2474
I2
sS'kurdish'
p2475
I1
sS'evasion'
p2476
I1
sS'database'
p2477
I2
sS'increases'
p2478
I1
sS'2gb'
p2479
I1
sS'moby'
p2480
I1
sS'ambassador'
p2481
I4
sS'goldbug'
p2482
I1
sS'exploits'
p2483
I1
sS'settlements'
p2484
I5
sS'taiwan'
p2485
I5
sS'nikki'
p2486
I2
sS'regrets'
p2487
I1
sS'throats'
p2488
I1
sS'barack'
p2489
I9
sS'infowarriors'
p2490
I1
sS'ballots'
p2491
I1
sS'guarantees'
p2492
I1
sS'luhrmann'
p2493
I1
sS'march'
p2494
I6
sS'stein'
p2495
I3
sS'showing'
p2496
I1
sS'game'
p2497
I2
sS'jibe'
p2498
I1
sS'signal'
p2499
I1
sS'provoking'
p2500
I1
sS'popular'
p2501
I5
sS'weiner'
p2502
I5
sS'sketch'
p2503
I1
sS'parade'
p2504
I1
sS'some'
p2505
I8
sS'urgent'
p2506
I1
sS'economic'
p2507
I12
sS'erupts'
p2508
I2
sS'delivered'
p2509
I2
sS'qatar'
p2510
I2
sS'hombres'
p2511
I1
sS'slash'
p2512
I2
sS'forgets'
p2513
I1
sS'run'
p2514
I10
sS'processing'
p2515
I1
sS'stem'
p2516
I1
sS'step'
p2517
I2
sS'abroad'
p2518
I2
sS'faith'
p2519
I1
sS'trucking'
p2520
I1
sS'hasan'
p2521
I1
sS'disrobes'
p2522
I1
sS'congressman'
p2523
I9
sS'block'
p2524
I9
sS'seeing'
p2525
I2
sS'decertify'
p2526
I2
sS'nonsense'
p2527
I2
sS'pentagon'
p2528
I5
sS'rolls'
p2529
I1
sS'reworked'
p2530
I1
sS'vorbild'
p2531
I1
sS'moyers'
p2532
I1
sS'himself'
p2533
I7
sS'russias'
p2534
I1
sS'driverless'
p2535
I1
sS'dips'
p2536
I1
sS'whines'
p2537
I1
sS'russian'
p2538
I30
sS'brokenhearted'
p2539
I1
sS'collapses'
p2540
I1
sS'info'
p2541
I11
sS'trumptapes'
p2542
I1
sS'similar'
p2543
I1
sS'uber'
p2544
I1
sS'ordered'
p2545
I4
sS'doesn'
p2546
I1
sS'reopening'
p2547
I4
sS'semite'
p2548
I1
sS'psychopath'
p2549
I1
sS'fears'
p2550
I4
sS'politicians'
p2551
I2
sS'coining'
p2552
I1
sS'department'
p2553
I4
sS'smiles'
p2554
I1
sS'draw'
p2555
I2
sS'reportedly'
p2556
I2
sS'kansas'
p2557
I1
sS'visits'
p2558
I11
sS'frances'
p2559
I1
sS'regulations'
p2560
I3
sS'militants'
p2561
I2
sS'evan'
p2562
I1
sS'ruthlessly'
p2563
I1
sS'e'
p2564
I3
sS'practically'
p2565
I1
sS'youtube'
p2566
I1
sS'agalarov'
p2567
I1
sS'hallways'
p2568
I1
sS'everywhere'
p2569
I2
sS'humiliates'
p2570
I1
sS'watergate'
p2571
I3
sS'scaramucci'
p2572
I10
sS'go'
p2573
I16
sS'gm'
p2574
I1
sS'tweeted'
p2575
I1
sS'kate'
p2576
I1
sS'birthplace'
p2577
I1
sS'mosque'
p2578
I1
sS'rollback'
p2579
I1
sS'murderous'
p2580
I1
sS'miners'
p2581
I3
sS'wave'
p2582
I1
sS'rebuked'
p2583
I1
sS'facebook'
p2584
I4
sS'telling'
p2585
I2
sS'positions'
p2586
I2
sS'button'
p2587
I1
sS'michael'
p2588
I22
sS'ryan'
p2589
I8
sS'epstein'
p2590
I1
sS'enforce'
p2591
I1
sS'anoymous'
p2592
I1
sS'ardent'
p2593
I1
sS'zu'
p2594
I1
sS'encadenen'
p2595
I1
sS'plays'
p2596
I4
sS'experiment'
p2597
I2
sS'focuses'
p2598
I1
sS'stance'
p2599
I5
sS'commercial'
p2600
I1
sS'eminem'
p2601
I2
sS'kidnapped'
p2602
I1
sS'likened'
p2603
I1
sS'kissinger'
p2604
I3
sS'chant'
p2605
I1
sS'janus'
p2606
I1
sS'henningsen'
p2607
I1
sS'addresses'
p2608
I3
sS'danger'
p2609
I1
sS'win'
p2610
I73
sS'wil'
p2611
I1
sS'metaphor'
p2612
I2
sS'remains'
p2613
I2
sS'camera'
p2614
I1
sS'alrededor'
p2615
I1
sS'vehicle'
p2616
I1
sS'congratulates'
p2617
I7
sS'hiding'
p2618
I1
sS'bureaucracy'
p2619
I1
sS'formally'
p2620
I3
sS'biblical'
p2621
I1
sS'started'
p2622
I1
sS'becomes'
p2623
I3
sS'blindsides'
p2624
I1
sS'visibility'
p2625
I1
sS'missile'
p2626
I13
sS'israelis'
p2627
I1
sS'appointee'
p2628
I1
sS'appointed'
p2629
I1
sS'sanctions'
p2630
I11
sS'ride'
p2631
I1
sS'meet'
p2632
I21
sS'drops'
p2633
I7
sS'control'
p2634
I6
sS'beijing'
p2635
I2
sS'links'
p2636
I5
sS'halloween'
p2637
I4
sS'escaped'
p2638
I1
sS'pulling'
p2639
I1
sS'sought'
p2640
I1
sS'hit'
p2641
I8
sS'voice'
p2642
I3
sS'poetry'
p2643
I1
sS'ronald'
p2644
I1
sS'clooney'
p2645
I1
sS'duterte'
p2646
I3
sS'bakery'
p2647
I1
sS'advocates'
p2648
I2
sS'agenda'
p2649
I5
sS'healthcare'
p2650
I8
sS'executives'
p2651
I1
sS'jnr'
p2652
I1
sS'fitts'
p2653
I1
sS'guerrilla'
p2654
I1
sS'backers'
p2655
I2
sS'emails'
p2656
I15
sS'koreans'
p2657
I2
sS'sweets'
p2658
I1
sS'yuge'
p2659
I1
sS'hands'
p2660
I4
sS'front'
p2661
I2
sS'university'
p2662
I4
sS'revolted'
p2663
I1
sS'slide'
p2664
I1
sS'modi'
p2665
I2
sS'shaking'
p2666
I4
sS'unwind'
p2667
I1
sS'dismissing'
p2668
I1
sS'supermodel'
p2669
I1
sS'transitions'
p2670
I1
sS'special'
p2671
I7
sS'secretly'
p2672
I2
sS'entertainment'
p2673
I1
sS'critics'
p2674
I2
sS'activist'
p2675
I2
sS'cause'
p2676
I3
sS'achievements'
p2677
I1
sS'reacts'
p2678
I4
sS'humiliating'
p2679
I3
sS'delegates'
p2680
I1
sS'attending'
p2681
I1
sS'completely'
p2682
I1
sS'jill'
p2683
I2
sS'intruder'
p2684
I1
sS'conservatives'
p2685
I3
sS'agony'
p2686
I1
sS'hostile'
p2687
I2
sS'route'
p2688
I1
sS'florida'
p2689
I19
sS'times'
p2690
I23
sS'berlusconi'
p2691
I1
sS'evans'
p2692
I1
sS'powerful'
p2693
I3
sS'such'
p2694
I2
sS'art'
p2695
I4
sS'quality'
p2696
I1
sS'katasonov'
p2697
I1
sS'porque'
p2698
I1
sS'data'
p2699
I1
sS'relations'
p2700
I13
sS'mccains'
p2701
I1
sS'attack'
p2702
I24
sS'durably'
p2703
I1
sS'declines'
p2704
I1
sS'perfectly'
p2705
I1
sS'final'
p2706
I9
sS'punish'
p2707
I2
sS'exactly'
p2708
I1
sS'apologise'
p2709
I2
sS'jinpings'
p2710
I1
sS'jinpingi'
p2711
I1
sS'ultimatum'
p2712
I1
sS'ben'
p2713
I3
sS'cartoonist'
p2714
I1
sS'bee'
p2715
I2
sS'maybe'
p2716
I1
sS'dumb'
p2717
I2
sS'providing'
p2718
I1
sS'bet'
p2719
I1
sS'glib'
p2720
I1
sS'globalists'
p2721
I1
sS'julian'
p2722
I5
sS'duma'
p2723
I1
sS'need'
p2724
I8
sS'border'
p2725
I13
sS'q'
p2726
I4
sS'microphone'
p2727
I1
sS'able'
p2728
I2
sS'battles'
p2729
I1
sS'bloodbath'
p2730
I1
sS'issuing'
p2731
I1
sS'tactic'
p2732
I1
sS'truck'
p2733
I3
sS'snubs'
p2734
I1
sS'lectures'
p2735
I1
sS'nytimes'
p2736
I1
sS'deploy'
p2737
I1
sS'unleash'
p2738
I2
sS'naranja'
p2739
I1
sS'vengeance'
p2740
I1
sS'demise'
p2741
I1
sS'awe'
p2742
I1
sS'consequences'
p2743
I5
sS'upset'
p2744
I2
sS'pictures'
p2745
I1
sS'businessman'
p2746
I3
sS'affair'
p2747
I1
sS'parker'
p2748
I1
sS'anyway'
p2749
I2
sS'soldiers'
p2750
I3
sS'envy'
p2751
I1
sS'based'
p2752
I3
sS'sheriff'
p2753
I3
sS'winner'
p2754
I4
sS'hopeful'
p2755
I1
sS'wreak'
p2756
I1
sS'dreamers'
p2757
I3
sS'gradual'
p2758
I1
sS'fuel'
p2759
I2
sS'michigan'
p2760
I6
sS'125'
p2761
I1
sS'fallout'
p2762
I2
sS'trucks'
p2763
I2
sS'tuned'
p2764
I4
sS'she'
p2765
I11
sS'dangerous'
p2766
I7
sS'grab'
p2767
I1
sS'widow'
p2768
I5
sS'spotted'
p2769
I2
sS'accuses'
p2770
I9
sS'prayers'
p2771
I1
sS'shake'
p2772
I2
sS'immigrant'
p2773
I2
sS'legacy'
p2774
I4
sS'parnell'
p2775
I1
sS'desperate'
p2776
I3
sS'nightmare'
p2777
I5
sS'macron'
p2778
I8
sS'state'
p2779
I21
sS'correctly'
p2780
I1
sS'horrible'
p2781
I3
sS'lui'
p2782
I1
sS'outsiders'
p2783
I1
sS'ken'
p2784
I1
sS'kicking'
p2785
I1
sS'key'
p2786
I14
sS'approval'
p2787
I4
sS'maga'
p2788
I2
sS'thank'
p2789
I2
sS'hits'
p2790
I13
sS'career'
p2791
I1
sS'minds'
p2792
I2
sS'darweesh'
p2793
I1
sS'jim'
p2794
I2
sS'tuesday'
p2795
I2
sS'quit'
p2796
I4
sS'industrials'
p2797
I1
sS'discrimination'
p2798
I1
sS'sara'
p2799
I1
sS'cent'
p2800
I1
sS'quiz'
p2801
I4
sS'immense'
p2802
I1
sS'liberals'
p2803
I8
sS'poet'
p2804
I1
sS'sart'
p2805
I1
sS'controlled'
p2806
I1
sS'releasing'
p2807
I1
sS'netanyahu'
p2808
I6
sS'policy'
p2809
I29
sS'abortions'
p2810
I1
sS'hamburg'
p2811
I1
sS'kicks'
p2812
I5
sS'smoking'
p2813
I1
sS'shameless'
p2814
I2
sS'intimidate'
p2815
I3
sS'harder'
p2816
I1
sS'salman'
p2817
I1
sS'petition'
p2818
I2
sS'coincidental'
p2819
I1
sS'surface'
p2820
I1
sS'dems'
p2821
I3
sS'swinging'
p2822
I1
sS'hearted'
p2823
I1
sS'trumplon'
p2824
I1
sS'tapper'
p2825
I2
sS'autism'
p2826
I1
sS'chants'
p2827
I3
sS'parts'
p2828
I5
sS'speaker'
p2829
I3
sS'party'
p2830
I17
sS'huntsman'
p2831
I1
sS'effect'
p2832
I8
sS'fierce'
p2833
I1
sS'spree'
p2834
I1
sS'destruction'
p2835
I2
sS'weld'
p2836
I1
sS'i'
p2837
I36
sS'obstacles'
p2838
I1
sS'well'
p2839
I2
sS'trials'
p2840
I1
sS'restore'
p2841
I3
sS'increasingly'
p2842
I1
sS'dose'
p2843
I1
sS'sources'
p2844
I1
sS'mistakes'
p2845
I1
sS'40'
p2846
I1
sS'headed'
p2847
I1
sS'semitism'
p2848
I1
sS'imposes'
p2849
I1
sS'extends'
p2850
I1
sS'sweet'
p2851
I1
sS'minorit'
p2852
I1
sS'kick'
p2853
I1
sS'fate'
p2854
I1
sS'utah'
p2855
I2
sS'crushed'
p2856
I3
sS'livid'
p2857
I1
sS'historic'
p2858
I8
sS'immediately'
p2859
I2
sS'crushes'
p2860
I1
sS'slattery'
p2861
I3
sS'loss'
p2862
I6
sS'lost'
p2863
I10
sS'clown'
p2864
I1
sS'sagen'
p2865
I1
sS'payments'
p2866
I2
sS'lose'
p2867
I10
sS'refugees'
p2868
I8
sS'page'
p2869
I1
sS'twitter'
p2870
I25
sS'hush'
p2871
I1
sS'home'
p2872
I12
sS'peter'
p2873
I3
sS'broad'
p2874
I2
sS'expansion'
p2875
I1
sS'outlets'
p2876
I1
sS'balkans'
p2877
I1
sS'usas'
p2878
I1
sS'refuge'
p2879
I1
sS'unhinged'
p2880
I1
sS'freedom'
p2881
I3
sS'impide'
p2882
I1
sS'stakes'
p2883
I2
sS'celebrations'
p2884
I1
sS'glenn'
p2885
I1
sS'primal'
p2886
I2
sS'washington'
p2887
I17
sS'couldnt'
p2888
I3
sS'whos'
p2889
I1
sS'mississippi'
p2890
I1
sS'rejoice'
p2891
I2
sS'museum'
p2892
I2
sS'inspiration'
p2893
I1
sS'crushing'
p2894
I3
sS'north'
p2895
I85
sS'revalue'
p2896
I1
sS'abductions'
p2897
I1
sS'agrees'
p2898
I2
sS'neutral'
p2899
I1
sS'goals'
p2900
I2
sS'courts'
p2901
I1
sS'ha'
p2902
I1
sS'he'
p2903
I114
sS'oligarchy'
p2904
I5
sS'dml'
p2905
I1
sS'limit'
p2906
I1
sS'offstage'
p2907
I1
sS'dmz'
p2908
I2
sS'piece'
p2909
I1
sS'display'
p2910
I1
sS'urging'
p2911
I1
sS'upsets'
p2912
I1
sS'twist'
p2913
I2
sS'beats'
p2914
I1
sS'education'
p2915
I1
sS'deplorables'
p2916
I2
sS'diego'
p2917
I1
sS'contest'
p2918
I3
sS'offensive'
p2919
I2
sS'aclu'
p2920
I1
sS'suspiciously'
p2921
I1
sS'star'
p2922
I34
sS'insults'
p2923
I4
sS'stab'
p2924
I1
sS'friends'
p2925
I3
sS'appoint'
p2926
I2
sS'khanfar'
p2927
I1
sS'hinch'
p2928
I1
sS'uneducated'
p2929
I1
sS'honchos'
p2930
I1
sS'indirectly'
p2931
I1
sS'pardon'
p2932
I5
sS'temperament'
p2933
I1
sS'obstruction'
p2934
I3
sS'protest'
p2935
I17
sS'asian'
p2936
I1
sS'aides'
p2937
I2
sS'captain'
p2938
I1
sS'whose'
p2939
I2
sS'protections'
p2940
I2
sS'kidman'
p2941
I1
sS'teaching'
p2942
I1
sS'sorry'
p2943
I1
sS'sway'
p2944
I1
sS'updated'
p2945
I1
sS'rescue'
p2946
I1
sS'smack'
p2947
I1
sS'updates'
p2948
I1
sS'govern'
p2949
I1
sS'affect'
p2950
I4
sS'disneys'
p2951
I1
sS'snowflakes'
p2952
I1
sS'debunks'
p2953
I1
sS'skills'
p2954
I1
sS'companies'
p2955
I5
sS'solution'
p2956
I6
sS'herbert'
p2957
I1
sS'pardons'
p2958
I3
sS'deplorable'
p2959
I4
sS'heading'
p2960
I2
sS'clothes'
p2961
I1
sS'uncovers'
p2962
I2
sS'force'
p2963
I9
sS'10m'
p2964
I1
sS'warns'
p2965
I37
sS'across'
p2966
I1
sS'likely'
p2967
I5
sS'trumpprotest'
p2968
I1
sS'even'
p2969
I12
sS'neo'
p2970
I3
sS'wreck'
p2971
I1
sS'asia'
p2972
I16
sS'spokesman'
p2973
I1
sS'lights'
p2974
I1
sS'new'
p2975
I105
sS'tips'
p2976
I1
sS'ever'
p2977
I12
sS'screams'
p2978
I1
sS'men'
p2979
I6
sS'met'
p2980
I5
sS'deposition'
p2981
I1
sS'nicht'
p2982
I1
sS'governing'
p2983
I1
sS'active'
p2984
I1
sS'100'
p2985
I18
sS'nosedive'
p2986
I1
sS'luther'
p2987
I1
sS'grenze'
p2988
I1
sS'ignoring'
p2989
I2
sS'credit'
p2990
I3
sS'harass'
p2991
I1
sS'permit'
p2992
I1
sS'pack'
p2993
I1
sS'pantano'
p2994
I1
sS'fantastic'
p2995
I2
sS'decries'
p2996
I1
sS'campaign'
p2997
I62
sS'reagan'
p2998
I2
sS'county'
p2999
I2
sS'pyongyang'
p3000
I1
sS'criminals'
p3001
I2
sS'army'
p3002
I3
sS'arms'
p3003
I1
sS'leaks'
p3004
I5
sS'call'
p3005
I39
sS'calm'
p3006
I1
sS'survive'
p3007
I2
sS'tell'
p3008
I2
sS'snowden'
p3009
I3
sS'supporters'
p3010
I63
sS'expose'
p3011
I2
sS'wars'
p3012
I1
sS'warn'
p3013
I1
sS'berlin'
p3014
I2
sS'warm'
p3015
I2
sS'room'
p3016
I2
sS'rights'
p3017
I8
sS'worth'
p3018
I1
sS'root'
p3019
I1
sS'give'
p3020
I5
sS'nftig'
p3021
I1
sS'involve'
p3022
I1
sS'untruthful'
p3023
I1
sS'soros'
p3024
I18
sS'amazing'
p3025
I3
sS'answer'
p3026
I4
sS'minority'
p3027
I1
sS'trumpriot'
p3028
I1
sS'vicious'
p3029
I3
sS'president'
p3030
I127
sS'trumpkin'
p3031
I1
sS'attempt'
p3032
I4
sS'third'
p3033
I5
sS'loyalists'
p3034
I2
sS'tribulations'
p3035
I1
sS'unfolds'
p3036
I1
sS'deck'
p3037
I1
sS'gettysburg'
p3038
I1
sS'before'
p3039
I22
sS'personal'
p3040
I1
sS'better'
p3041
I3
sS'irans'
p3042
I1
sS'stalemate'
p3043
I1
sS'weeks'
p3044
I4
sS'donors'
p3045
I2
sS'weakness'
p3046
I1
sS'intimidation'
p3047
I5
sS'therapy'
p3048
I1
sS'rhetoric'
p3049
I5
sS'arrested'
p3050
I8
sS'mistrust'
p3051
I1
sS'victories'
p3052
I1
sS'mcfarland'
p3053
I1
sS'roast'
p3054
I1
sS'went'
p3055
I3
sS'side'
p3056
I1
sS'bone'
p3057
I2
sS'mean'
p3058
I9
sS'aide'
p3059
I8
sS'arrives'
p3060
I8
sS'trading'
p3061
I1
sS'forgot'
p3062
I1
sS'lawyers'
p3063
I6
sS'rebuts'
p3064
I1
sS'kiev'
p3065
I1
sS'pussies'
p3066
I1
sS'crucial'
p3067
I1
sS'lurks'
p3068
I1
sS'mccarthy'
p3069
I1
sS'surprise'
p3070
I7
sS'venezuela'
p3071
I3
sS'turning'
p3072
I1
sS'resume'
p3073
I1
sS'revenge'
p3074
I3
sS'ramos'
p3075
I2
sS'personalities'
p3076
I1
sS'starts'
p3077
I6
sS'messages'
p3078
I1
sS'steward'
p3079
I1
sS'stewart'
p3080
I1
sS'features'
p3081
I1
sS'economists'
p3082
I1
sS'grade'
p3083
I2
sS'reassure'
p3084
I2
sS'hook'
p3085
I2
sS'redflag'
p3086
I2
sS'disappearing'
p3087
I1
sS'ditch'
p3088
I1
sS'hood'
p3089
I1
sS'brock'
p3090
I1
sS'yuan'
p3091
I1
sS'iannucci'
p3092
I1
sS'hawks'
p3093
I1
sS'interlude'
p3094
I1
sS'hollywood'
p3095
I21
sS'fiery'
p3096
I1
sS'gym'
p3097
I1
sS'begins'
p3098
I7
sS'distance'
p3099
I1
sS'anxiety'
p3100
I1
sS'legalize'
p3101
I1
sS'preparation'
p3102
I1
sS'matter'
p3103
I3
sS'persuade'
p3104
I1
sS'mini'
p3105
I1
sS'sees'
p3106
I4
sS'modern'
p3107
I1
sS'mind'
p3108
I4
sS'mining'
p3109
I1
sS'gaslighting'
p3110
I1
sS'seen'
p3111
I2
sS'seek'
p3112
I3
sS'tells'
p3113
I29
sS'ricos'
p3114
I1
sS'hags'
p3115
I1
sS'chess'
p3116
I1
sS'gorka'
p3117
I2
sS'moscow'
p3118
I5
sS'regular'
p3119
I1
sS'tombstones'
p3120
I1
sS'exonerate'
p3121
I1
sS'maria'
p3122
I1
sS'alarm'
p3123
I1
sS'm'
p3124
I16
sS'dog'
p3125
I4
sS'points'
p3126
I8
sS'dow'
p3127
I4
sS'distances'
p3128
I2
sS'implodes'
p3129
I1
sS'collectivism'
p3130
I1
sS'nevada'
p3131
I4
sS'judges'
p3132
I1
sS'concilliatory'
p3133
I1
sS'unleashes'
p3134
I2
sS'judgey'
p3135
I1
sS'explain'
p3136
I2
sS'debts'
p3137
I1
sS'cripple'
p3138
I1
sS'sugar'
p3139
I1
sS'trumpflation'
p3140
I1
sS'monuments'
p3141
I1
sS'jailed'
p3142
I2
sS'wearing'
p3143
I5
sS'exports'
p3144
I1
sS'stop'
p3145
I17
sS'coast'
p3146
I1
sS'christopher'
p3147
I1
sS'bar'
p3148
I3
sS'baz'
p3149
I1
sS'bay'
p3150
I1
sS'bad'
p3151
I11
sS'disney'
p3152
I2
sS'ban'
p3153
I76
sS'counters'
p3154
I1
sS'effing'
p3155
I1
sS'decides'
p3156
I1
sS'vandalised'
p3157
I2
sS'zones'
p3158
I1
sS'decided'
p3159
I1
sS'subject'
p3160
I1
sS'pete'
p3161
I2
sS'00'
p3162
I1
sS'said'
p3163
I15
sS'grattan'
p3164
I2
sS'inappropriate'
p3165
I2
sS'artificial'
p3166
I2
sS'globalism'
p3167
I1
sS'smacks'
p3168
I1
sS'globalist'
p3169
I3
sS'sorts'
p3170
I1
sS'suepennontwitte'
p3171
I1
sS'reddit'
p3172
I2
sS'vows'
p3173
I14
sS'restricting'
p3174
I1
sS'blitzer'
p3175
I1
sS'harvard'
p3176
I1
sS'picking'
p3177
I1
sS'cashin'
p3178
I1
sS'uns'
p3179
I2
sS'covfefe'
p3180
I3
sS'uncertainty'
p3181
I3
sS'against'
p3182
I59
sS'una'
p3183
I1
sS'uni'
p3184
I1
sS'obamas'
p3185
I4
sS'durante'
p3186
I1
sS'aftermath'
p3187
I1
sS'marmite'
p3188
I1
sS'loaded'
p3189
I1
sS'recognises'
p3190
I1
sS'asks'
p3191
I11
sS'three'
p3192
I12
sS'tiny'
p3193
I1
sS'cyrus'
p3194
I1
sS'trigger'
p3195
I3
sS'interest'
p3196
I1
sS'website'
p3197
I3
sS'dismiss'
p3198
I2
sS'tapping'
p3199
I2
sS'personally'
p3200
I1
sS'tano'
p3201
I1
sS'unpopular'
p3202
I1
sS'tank'
p3203
I4
sS'affirm'
p3204
I1
sS'economies'
p3205
I1
sS'near'
p3206
I1
sS'chilling'
p3207
I4
sS'mexico'
p3208
I30
sS'is'
p3209
I226
sS'it'
p3210
I84
sS'defeated'
p3211
I1
sS'cant'
p3212
I7
sS'im'
p3213
I2
sS'il'
p3214
I2
sS'in'
p3215
I431
sS'faked'
p3216
I1
sS'mujer'
p3217
I1
sS'if'
p3218
I71
sS'make'
p3219
I28
sS'80s'
p3220
I1
sS'confronting'
p3221
I1
sS'grows'
p3222
I1
sS'meets'
p3223
I12
sS'advocate'
p3224
I2
sS'kim'
p3225
I7
sS'opportunity'
p3226
I4
sS'programs'
p3227
I1
sS'youre'
p3228
I1
sS'inherit'
p3229
I2
sS'rome'
p3230
I1
sS'claims'
p3231
I22
sS'left'
p3232
I11
sS'just'
p3233
I80
sS'unfair'
p3234
I3
sS'fighters'
p3235
I1
sS'human'
p3236
I7
sS'facts'
p3237
I1
sS'tattooed'
p3238
I1
sS'yet'
p3239
I5
sS'candidate'
p3240
I6
sS'assassination'
p3241
I7
sS'about'
p3242
I75
sS'recreates'
p3243
I1
sS'save'
p3244
I7
sS'enviornment'
p3245
I1
sS'govt'
p3246
I1
sS'dreams'
p3247
I1
sS'vanity'
p3248
I1
sS'dignity'
p3249
I1
sS'arrivals'
p3250
I1
sS'zombies'
p3251
I1
sS'dean'
p3252
I2
sS'deal'
p3253
I66
sS'dead'
p3254
I6
sS'dear'
p3255
I3
sS'sarah'
p3256
I2
sS'bold'
p3257
I1
sS'ww3'
p3258
I3
sS'burn'
p3259
I2
sS'super'
p3260
I2
sS'zur'
p3261
I1
sS'magazine'
p3262
I2
sS'dutton'
p3263
I3
sS'islands'
p3264
I2
sS'whats'
p3265
I6
sS'lied'
p3266
I2
sS'dfat'
p3267
I1
sS'appoints'
p3268
I5
sS'chooses'
p3269
I1
sS'down'
p3270
I28
sS'lies'
p3271
I7
sS'slurs'
p3272
I1
sS'armada'
p3273
I1
sS'communists'
p3274
I2
sS'editor'
p3275
I1
sS'sickest'
p3276
I1
sS'ford'
p3277
I4
sS'lows'
p3278
I1
sS'bern'
p3279
I1
sS'220'
p3280
I1
sS'baldwins'
p3281
I1
sS'staged'
p3282
I1
sS'daddy'
p3283
I2
sS'propaganda'
p3284
I8
sS'delete'
p3285
I4
sS'widows'
p3286
I1
sS'digital'
p3287
I1
sS'savage'
p3288
I2
sS'dies'
p3289
I1
sS'felt'
p3290
I2
sS'journey'
p3291
I2
sS'shatters'
p3292
I1
sS'weekend'
p3293
I2
sS'derail'
p3294
I1
sS'billion'
p3295
I2
sS'happening'
p3296
I5
sS'apology'
p3297
I1
sS'daily'
p3298
I16
sS'premiums'
p3299
I1
sS'teeth'
p3300
I1
sS'anglican'
p3301
I1
sS'themed'
p3302
I1
sS'skip'
p3303
I2
sS'cking'
p3304
I1
sS'skit'
p3305
I1
sS'manager'
p3306
I3
sS'skin'
p3307
I2
sS'milo'
p3308
I1
sS'primer'
p3309
I2
sS'anticipation'
p3310
I2
sS'praises'
p3311
I9
sS'father'
p3312
I6
sS'disgusting'
p3313
I3
sS'gutless'
p3314
I1
sS'0'
p3315
I1
sS'finally'
p3316
I4
sS'praised'
p3317
I2
sS'suffered'
p3318
I1
sS'advises'
p3319
I1
sS'me'
p3320
I11
sS'inciting'
p3321
I1
sS'billionaire'
p3322
I2
sS'ckhalten'
p3323
I1
sS'defying'
p3324
I2
sS'ma'
p3325
I1
sS'governments'
p3326
I1
sS'did'
p3327
I35
sS'die'
p3328
I1
sS'democrat'
p3329
I5
sS'bikers'
p3330
I2
sS'dit'
p3331
I1
sS'talked'
p3332
I1
sS'fearing'
p3333
I1
sS'dealing'
p3334
I1
sS'grovel'
p3335
I1
sS'targets'
p3336
I3
sS'resurgence'
p3337
I1
sS'adds'
p3338
I1
sS'favour'
p3339
I1
sS'suspect'
p3340
I3
sS'vandalized'
p3341
I3
sS'international'
p3342
I2
sS'dwarf'
p3343
I1
sS'guardian'
p3344
I3
sS'univision'
p3345
I1
sS'french'
p3346
I2
sS'wait'
p3347
I2
sS'box'
p3348
I1
sS'boy'
p3349
I5
sS'canadian'
p3350
I1
sS'bot'
p3351
I1
sS'widening'
p3352
I1
sS'suggestion'
p3353
I1
sS'priceless'
p3354
I1
sS'bob'
p3355
I5
sS'elect'
p3356
I17
sS'everybody'
p3357
I1
sS'troops'
p3358
I6
sS'visit'
p3359
I17
sS'france'
p3360
I2
sS'scenarios'
p3361
I1
sS'insider'
p3362
I3
sS'sharing'
p3363
I2
sS'freestyle'
p3364
I1
sS'effort'
p3365
I1
sS'fly'
p3366
I1
sS'demolish'
p3367
I1
sS'balistique'
p3368
I1
sS'hubris'
p3369
I1
sS'reviews'
p3370
I1
sS'drags'
p3371
I1
sS'fla'
p3372
I1
sS'making'
p3373
I9
sS'arrive'
p3374
I2
sS'claim'
p3375
I10
sS'crazy'
p3376
I1
sS'lobbying'
p3377
I1
sS'fuck'
p3378
I1
sS'agent'
p3379
I3
sS'council'
p3380
I4
sS'tilt'
p3381
I1
sS'nyt'
p3382
I6
sS'chemical'
p3383
I3
sS'sword'
p3384
I2
sS'nyc'
p3385
I1
sS'sworn'
p3386
I2
sS'map'
p3387
I2
sS'mar'
p3388
I2
sS'may'
p3389
I24
sS'max'
p3390
I1
sS'snl'
p3391
I4
sS'anzus'
p3392
I1
sS'snr'
p3393
I1
sS'mad'
p3394
I2
sS'mocks'
p3395
I1
sS'catcall'
p3396
I1
sS'guys'
p3397
I1
sS'grow'
p3398
I2
sS'man'
p3399
I24
sS'scrambling'
p3400
I1
sS'womens'
p3401
I3
sS'noun'
p3402
I1
sS'neck'
p3403
I1
sS'johnson'
p3404
I2
sS'6th'
p3405
I1
sS'tale'
p3406
I1
sS'switch'
p3407
I1
sS'jail'
p3408
I4
sS'african'
p3409
I7
sS'basket'
p3410
I1
sS'talk'
p3411
I16
sS'shoes'
p3412
I1
sS'canberra'
p3413
I1
sS'rabbi'
p3414
I1
sS'kimmel'
p3415
I1
sS'cuts'
p3416
I14
sS'argued'
p3417
I1
sS'consolidating'
p3418
I1
sS'police'
p3419
I6
sS'monitor'
p3420
I1
sS'plagiarized'
p3421
I1
sS'tweets'
p3422
I31
sS'mail'
p3423
I2
sS'msnbc'
p3424
I7
sS'undermines'
p3425
I1
sS'texas'
p3426
I16
sS'finance'
p3427
I5
sS'views'
p3428
I2
sS'rattled'
p3429
I1
sS'killer'
p3430
I2
sS'undisclosed'
p3431
I1
sS'tucker'
p3432
I1
sS'interview'
p3433
I12
sS'touching'
p3434
I1
sS'kkk'
p3435
I4
sS'killed'
p3436
I5
sS'unpredictability'
p3437
I2
sS'attorneys'
p3438
I2
sS'keenly'
p3439
I1
sS'beach'
p3440
I2
sS'maher'
p3441
I1
sS'bridging'
p3442
I1
sS'presstitute'
p3443
I1
sS'girl'
p3444
I5
sS'canada'
p3445
I4
sS'jackson'
p3446
I2
sS'newsnight'
p3447
I1
sS'condemns'
p3448
I7
sS'dominate'
p3449
I4
sS'correct'
p3450
I1
sS'assurance'
p3451
I1
sS'varghese'
p3452
I1
sS'monster'
p3453
I1
sS'brooks'
p3454
I1
sS'spies'
p3455
I1
sS'california'
p3456
I2
sS'org'
p3457
I2
sS'orb'
p3458
I1
sS'advance'
p3459
I1
sS'language'
p3460
I3
sS'ministry'
p3461
I1
sS'where'
p3462
I4
sS'worrying'
p3463
I3
sS'thing'
p3464
I7
sS'accerate'
p3465
I1
sS'think'
p3466
I16
sS'first'
p3467
I67
sS'fleeing'
p3468
I1
sS'rachel'
p3469
I4
sS'americans'
p3470
I28
sS'long'
p3471
I5
sS'suspended'
p3472
I1
sS'sounds'
p3473
I4
sS'little'
p3474
I6
sS'hollyweirdos'
p3475
I1
sS'murky'
p3476
I1
sS'anyone'
p3477
I3
sS'1b'
p3478
I1
sS'escort'
p3479
I1
sS'speaking'
p3480
I1
sS'eyes'
p3481
I1
sS'memo'
p3482
I3
sS'subpoenas'
p3483
I1
sS'broadcast'
p3484
I1
sS'hillary'
p3485
I174
sS'11'
p3486
I8
sS'10'
p3487
I8
sS'13'
p3488
I5
sS'12'
p3489
I8
sS'15'
p3490
I1
sS'14'
p3491
I3
sS'17'
p3492
I1
sS'19'
p3493
I1
sS'18'
p3494
I1
sS'automakers'
p3495
I1
sS'sabotaged'
p3496
I1
sS'were'
p3497
I11
sS'declares'
p3498
I9
sS'dass'
p3499
I2
sS'marijuana'
p3500
I1
sS'conspiracy'
p3501
I4
sS'voiced'
p3502
I1
sS'impersonators'
p3503
I1
sS'20k'
p3504
I2
sS'nazi'
p3505
I1
sS'kevin'
p3506
I1
sS'shocked'
p3507
I5
sS'clintons'
p3508
I6
sS'potential'
p3509
I1
sS'shocker'
p3510
I4
sS'performance'
p3511
I3
sS'switching'
p3512
I5
sS'channel'
p3513
I1
sS'norman'
p3514
I1
sS'normal'
p3515
I1
sS'paid'
p3516
I10
sS'assault'
p3517
I10
sS'misterdawg'
p3518
I1
sS'complaints'
p3519
I1
sS'unknowable'
p3520
I1
sS'sussman'
p3521
I1
sS'harvey'
p3522
I9
sS'amendment'
p3523
I1
sS'rating'
p3524
I2
sS'spruik'
p3525
I1
sS'show'
p3526
I14
sS'jordanian'
p3527
I1
sS'cambodian'
p3528
I1
sS'corner'
p3529
I1
sS'forecast'
p3530
I1
sS'deportation'
p3531
I3
sS'office'
p3532
I10
sS'storms'
p3533
I1
sS'enough'
p3534
I3
sS'black'
p3535
I34
sS'treasury'
p3536
I1
sS'enthusiasm'
p3537
I1
sS'ranking'
p3538
I1
sS'dishonourable'
p3539
I1
sS'get'
p3540
I19
sS'hostage'
p3541
I2
sS'merkel'
p3542
I3
sS'designated'
p3543
I1
sS'nearly'
p3544
I2
sS'designates'
p3545
I1
sS'bastille'
p3546
I1
sS'mattis'
p3547
I1
sS'busiest'
p3548
I1
sS'morning'
p3549
I5
sS'stupid'
p3550
I2
sS'miley'
p3551
I1
sS'communicated'
p3552
I1
sS'deletions'
p3553
I1
sS'declared'
p3554
I2
sS'seat'
p3555
I1
sS'huckabee'
p3556
I2
sS'sean'
p3557
I6
sS'seal'
p3558
I3
sS'indicted'
p3559
I1
sS'registering'
p3560
I1
sS'label'
p3561
I2
sS'pump'
p3562
I1
sS'gaga'
p3563
I1
sS'reading'
p3564
I1
sS'checks'
p3565
I2
sS'affordable'
p3566
I1
sS'infrastructure'
p3567
I2
sS'legitimacy'
p3568
I1
sS'jr'
p3569
I16
sS'killing'
p3570
I1
sS'trolling'
p3571
I1
sS'kirsten'
p3572
I1
sS'tug'
p3573
I1
sS'jfk'
p3574
I6
sS'dates'
p3575
I1
sS'hypocrisy'
p3576
I1
sS'according'
p3577
I4
sS'blasts'
p3578
I14
sS'tour'
p3579
I8
sS'awards'
p3580
I3
sS'holders'
p3581
I2
sS'rieux'
p3582
I1
sS'grants'
p3583
I1
sS'stretched'
p3584
I1
sS'cancel'
p3585
I4
sS'considering'
p3586
I7
sS'arts'
p3587
I1
sS'rickards'
p3588
I1
sS'tuning'
p3589
I1
sS'capable'
p3590
I1
sS'ucla'
p3591
I3
sS'mark'
p3592
I5
sS'mars'
p3593
I1
sS'rancher'
p3594
I1
sS'dramatic'
p3595
I1
sS'wake'
p3596
I6
sS'metals'
p3597
I1
sS'declaration'
p3598
I1
sS'those'
p3599
I2
sS'sound'
p3600
I2
sS'stacked'
p3601
I1
sS'outspends'
p3602
I1
sS'legitimise'
p3603
I1
sS'warning'
p3604
I8
sS'ongoing'
p3605
I1
sS'apologises'
p3606
I5
sS'cancelled'
p3607
I1
sS'investigating'
p3608
I2
sS'trades'
p3609
I1
sS'bathrooms'
p3610
I1
sS'coffee'
p3611
I1
sS'middle'
p3612
I14
sS'licite'
p3613
I1
sS'different'
p3614
I3
sS'pas'
p3615
I1
sS'doctor'
p3616
I1
sS'pay'
p3617
I9
sS'same'
p3618
I5
sS'pac'
p3619
I3
sS'speech'
p3620
I42
sS'jeffrey'
p3621
I1
sS'oil'
p3622
I2
sS'running'
p3623
I6
sS'totally'
p3624
I2
sS'drain'
p3625
I2
sS'slanders'
p3626
I1
sS'sayers'
p3627
I1
sS'animatronic'
p3628
I1
sS'parody'
p3629
I2
sS'trumppledge'
p3630
I1
sS'money'
p3631
I9
sS'bowie'
p3632
I1
sS'4'
p3633
I11
sS'jake'
p3634
I2
sS'schwarzenegger'
p3635
I1
sS'mow'
p3636
I2
sS'moo'
p3637
I3
sS'secrecy'
p3638
I1
sS'gabbard'
p3639
I1
sS'mob'
p3640
I4
sS'disappointed'
p3641
I1
sS'adams'
p3642
I2
sS'nusra'
p3643
I1
sS'serves'
p3644
I1
sS'server'
p3645
I3
sS'facing'
p3646
I3
sS'audience'
p3647
I1
sS'laughing'
p3648
I1
sS'passionate'
p3649
I1
sS'robbers'
p3650
I1
sS'climactic'
p3651
I1
sS'jews'
p3652
I2
sS'witchcraft'
p3653
I1
sS'erase'
p3654
I3
sS'outs'
p3655
I4
sS'crites'
p3656
I1
sS'confirm'
p3657
I1
sS'critical'
p3658
I4
sS'aussie'
p3659
I3
sS'knife'
p3660
I2
sS'londons'
p3661
I1
sS'seconds'
p3662
I2
sS'broker'
p3663
I3
sS'broken'
p3664
I4
sS'qna'
p3665
I2
sS'stations'
p3666
I1
sS'island'
p3667
I3
sS'violence'
p3668
I7
sS'pockets'
p3669
I1
sS'mounting'
p3670
I1
sS'mixed'
p3671
I3
sS'alec'
p3672
I5
sS'road'
p3673
I1
sS'quietly'
p3674
I1
sS'lands'
p3675
I1
sS'hillarist'
p3676
I1
sS'spreading'
p3677
I1
sS'skilled'
p3678
I1
sS'jerusalem'
p3679
I23
sS'distracted'
p3680
I1
sS'gravis'
p3681
I1
sS'decisive'
p3682
I1
sS'unsettled'
p3683
I1
sS'strikes'
p3684
I3
sS'gore'
p3685
I2
sS'hurricanes'
p3686
I1
sS'shrugs'
p3687
I1
sS'emissions'
p3688
I1
sS'manuel'
p3689
I1
sS'leaked'
p3690
I7
sS'videos'
p3691
I1
sS'deep'
p3692
I2
sS'general'
p3693
I13
sS'deen'
p3694
I1
sS'file'
p3695
I2
sS'girlfriend'
p3696
I1
sS'lifetime'
p3697
I1
sS'syrian'
p3698
I6
sS'fill'
p3699
I1
sS'again'
p3700
I18
sS'personnel'
p3701
I2
sS'cyberbullying'
p3702
I1
sS'bragging'
p3703
I1
sS'astronaut'
p3704
I1
sS'obsessed'
p3705
I1
sS'students'
p3706
I6
sS'narrative'
p3707
I3
sS'important'
p3708
I3
sS'chris'
p3709
I7
sS'assets'
p3710
I1
sS'sewer'
p3711
I1
sS'u'
p3712
I19
sS'resolution'
p3713
I1
sS'miltary'
p3714
I1
sS'represent'
p3715
I1
sS'colleges'
p3716
I1
sS'liar'
p3717
I3
sS'forget'
p3718
I4
sS'founder'
p3719
I1
sS'suburban'
p3720
I1
sS'dollar'
p3721
I9
sS'talks'
p3722
I19
sS'children'
p3723
I8
sS'shattered'
p3724
I1
sS'gorafi'
p3725
I7
sS'redecorate'
p3726
I1
sS'victoire'
p3727
I1
sS'parcel'
p3728
I1
sS'manafort'
p3729
I5
sS'returning'
p3730
I1
sS'wiretap'
p3731
I1
sS'fall'
p3732
I6
sS'difference'
p3733
I1
sS'steve'
p3734
I12
sS'mothers'
p3735
I1
sS'celebrity'
p3736
I2
sS'saudi'
p3737
I6
sS'neighborhood'
p3738
I1
sS'withheld'
p3739
I1
sS'grabs'
p3740
I2
sS'preposterous'
p3741
I1
sS'zero'
p3742
I1
sS'lawyer'
p3743
I7
sS'further'
p3744
I3
sS'ribbon'
p3745
I1
sS'defence'
p3746
I8
sS'abe'
p3747
I4
sS'90k'
p3748
I1
sS'tribute'
p3749
I2
sS'public'
p3750
I7
sS'movement'
p3751
I3
sS'compilation'
p3752
I1
sS'table'
p3753
I2
sS'search'
p3754
I1
sS'bible'
p3755
I3
sS'significantly'
p3756
I4
sS'airport'
p3757
I3
sS'uncharted'
p3758
I1
sS'published'
p3759
I1
sS'megyn'
p3760
I6
sS'buses'
p3761
I1
sS'africa'
p3762
I1
sS'rican'
p3763
I1
sS'armed'
p3764
I2
sS'eye'
p3765
I1
sS'two'
p3766
I19
sS'comparing'
p3767
I1
sS'correspondents'
p3768
I3
sS'h1b'
p3769
I1
sS'wipes'
p3770
I1
sS'hegemony'
p3771
I1
sS'admissions'
p3772
I1
sS'particular'
p3773
I1
sS'vladimir'
p3774
I8
sS'des'
p3775
I2
sS'guards'
p3776
I2
sS'remain'
p3777
I2
sS'abandon'
p3778
I3
sS'dea'
p3779
I1
sS'shark'
p3780
I1
sS'onslaught'
p3781
I1
sS'share'
p3782
I5
sS'contradicts'
p3783
I1
sS'numbers'
p3784
I10
sS'needs'
p3785
I8
sS'awkward'
p3786
I2
sS'rye'
p3787
I1
sS'showmanship'
p3788
I1
sS'maps'
p3789
I2
sS'stir'
p3790
I1
sS'charms'
p3791
I1
sS'uprising'
p3792
I3
sS'advice'
p3793
I1
sS'blood'
p3794
I1
sS'countering'
p3795
I1
sS'coming'
p3796
I6
sS'response'
p3797
I12
sS'452000'
p3798
I1
sS'tweeting'
p3799
I1
sS'coal'
p3800
I5
sS'playing'
p3801
I3
sS'swamped'
p3802
I1
sS'setback'
p3803
I2
sS'appeals'
p3804
I7
sS'through'
p3805
I3
sS'suffer'
p3806
I1
sS'24'
p3807
I1
sS'20'
p3808
I3
sS'22'
p3809
I2
sS'28'
p3810
I2
sS'29'
p3811
I1
sS'late'
p3812
I3
sS'reuters'
p3813
I1
sS'pena'
p3814
I4
sS'resentments'
p3815
I1
sS'penn'
p3816
I1
sS'lookout'
p3817
I4
sS'hurting'
p3818
I1
sS'good'
p3819
I7
sS'seeking'
p3820
I3
sS'gropes'
p3821
I1
sS'blumenthal'
p3822
I1
sS'walls'
p3823
I3
sS'formulating'
p3824
I1
sS'association'
p3825
I1
sS'easily'
p3826
I1
sS'hails'
p3827
I2
sS'token'
p3828
I1
sS'gender'
p3829
I1
sS'counselled'
p3830
I1
sS'everyone'
p3831
I5
sS'mental'
p3832
I3
sS'house'
p3833
I70
sS'tiffany'
p3834
I1
sS'hard'
p3835
I6
sS'idea'
p3836
I1
sS'katrina'
p3837
I1
sS'connect'
p3838
I1
sS'portland'
p3839
I2
sS'insurance'
p3840
I1
sS'stands'
p3841
I2
sS'perry'
p3842
I1
sS'funding'
p3843
I5
sS'projected'
p3844
I1
sS'wwiii'
p3845
I1
sS'acting'
p3846
I3
sS'print'
p3847
I2
sS'disobedience'
p3848
I1
sS'bully'
p3849
I2
sS'motherfucker'
p3850
I1
sS'bombshell'
p3851
I6
sS'members'
p3852
I1
sS'impeached'
p3853
I2
sS'backed'
p3854
I2
sS'beginning'
p3855
I1
sS'bragged'
p3856
I1
sS'panellist'
p3857
I1
sS'finland'
p3858
I4
sS'eowyn'
p3859
I2
sS'dons'
p3860
I2
sS'dont'
p3861
I18
sS'stabs'
p3862
I1
sS'nach'
p3863
I1
sS'bullies'
p3864
I2
sS'cada'
p3865
I1
sS'done'
p3866
I9
sS'shoaf'
p3867
I2
sS'revive'
p3868
I1
sS'180'
p3869
I1
sS'statement'
p3870
I6
sS'para'
p3871
I1
sS'wildly'
p3872
I1
sS'part'
p3873
I5
sS'trolls'
p3874
I3
sS'believe'
p3875
I5
sS'carnage'
p3876
I1
sS'b'
p3877
I1
sS'dossier'
p3878
I2
sS'gotten'
p3879
I1
sS'2020'
p3880
I3
sS'supposed'
p3881
I1
sS'treated'
p3882
I2
sS'declare'
p3883
I2
sS'nominee'
p3884
I4
sS'ebenfalls'
p3885
I1
sS'ages'
p3886
I1
sS'meltdown'
p3887
I1
sS'confirms'
p3888
I10
sS'orders'
p3889
I11
sS'assails'
p3890
I1
sS'caesar'
p3891
I1
sS'build'
p3892
I10
sS'trumplandia'
p3893
I1
sS'carolina'
p3894
I2
sS'chart'
p3895
I1
sS'most'
p3896
I15
sS'ki'
p3897
I1
sS'charitable'
p3898
I1
sS'kt'
p3899
I1
sS'weigh'
p3900
I5
sS'sector'
p3901
I2
sS'rebels'
p3902
I1
sS'wailing'
p3903
I1
sS'hugging'
p3904
I1
sS'businesses'
p3905
I1
sS'carefully'
p3906
I1
sS'jared'
p3907
I3
sS'headlines'
p3908
I2
sS'fine'
p3909
I5
sS'find'
p3910
I5
sS'giant'
p3911
I3
sS'nervous'
p3912
I5
sS'ruin'
p3913
I1
sS'8'
p3914
I3
sS'cuomo'
p3915
I1
sS'mein'
p3916
I1
sS'courage'
p3917
I1
sS'guild'
p3918
I1
sS'restart'
p3919
I1
sS'kikes'
p3920
I1
sS'spikes'
p3921
I1
sS'nazis'
p3922
I2
sS'medley'
p3923
I1
sS'retweet'
p3924
I1
sS'expert'
p3925
I6
sS'electoral'
p3926
I13
sS'fans'
p3927
I13
sS'burned'
p3928
I2
sS'vindicated'
p3929
I1
sS'pisses'
p3930
I1
sS'masterful'
p3931
I1
sS'renews'
p3932
I1
sS'aircraft'
p3933
I1
sS'scuttle'
p3934
I1
sS'pissed'
p3935
I2
sS'foreign'
p3936
I17
sS'unfavorability'
p3937
I1
sS'tightens'
p3938
I1
sS'point'
p3939
I6
sS'simple'
p3940
I1
sS'dances'
p3941
I1
sS'ravaged'
p3942
I2
sS'scrapped'
p3943
I1
sS'hannity'
p3944
I2
sS'raise'
p3945
I1
sS'create'
p3946
I1
sS'secret'
p3947
I13
sS'dropping'
p3948
I2
sS'meeting'
p3949
I39
sS'kathy'
p3950
I1
sS'gay'
p3951
I2
sS'honorary'
p3952
I1
sS'gas'
p3953
I1
sS'gap'
p3954
I4
sS'understand'
p3955
I1
sS'prices'
p3956
I2
sS'evangelical'
p3957
I3
sS'hearin'
p3958
I1
sS'politician'
p3959
I2
sS'solid'
p3960
I1
sS'bill'
p3961
I17
sS'tolerate'
p3962
I2
sS'elections'
p3963
I2
sS'reopens'
p3964
I3
sS'replaced'
p3965
I1
sS'withdrawing'
p3966
I4
sS'century'
p3967
I4
sS'violently'
p3968
I1
sS'itself'
p3969
I1
sS'wiretapping'
p3970
I3
sS'zieht'
p3971
I1
sS'italy'
p3972
I1
sS'development'
p3973
I1
sS'strips'
p3974
I1
sS'jerusalems'
p3975
I1
sS'husbands'
p3976
I1
sS'moment'
p3977
I3
sS'celebratory'
p3978
I1
sS'predecessors'
p3979
I1
sS'task'
p3980
I1
sS'spent'
p3981
I1
sS'unannounced'
p3982
I1
sS'flags'
p3983
I2
sS'withdraw'
p3984
I1
sS'landmark'
p3985
I1
sS'entry'
p3986
I1
sS'spend'
p3987
I1
sS'leaking'
p3988
I1
sS'shape'
p3989
I2
sS'openly'
p3990
I1
sS'letting'
p3991
I2
sS'cut'
p3992
I8
sS'pollster'
p3993
I1
sS'scales'
p3994
I1
sS'source'
p3995
I1
sS'deliberately'
p3996
I1
sS'cub'
p3997
I1
sS'mavs'
p3998
I1
sS'excited'
p3999
I1
sS'hates'
p4000
I1
sS'hater'
p4001
I3
sS'big'
p4002
I17
sS'bid'
p4003
I8
sS'laughed'
p4004
I1
sS'matters'
p4005
I3
sS'biz'
p4006
I1
sS'narcissist'
p4007
I2
sS'bit'
p4008
I1
sS'follows'
p4009
I2
sS'surging'
p4010
I2
sS'foolish'
p4011
I2
sS'google'
p4012
I3
sS'jibes'
p4013
I1
sS'absolutely'
p4014
I2
sS'extremism'
p4015
I1
sS'magnificent'
p4016
I1
sS'scuttles'
p4017
I1
sS'impeach'
p4018
I1
sS'ourselves'
p4019
I1
sS'minefield'
p4020
I1
sS'contacts'
p4021
I3
sS'uhlmanns'
p4022
I1
sS'per'
p4023
I2
sS'pen'
p4024
I1
sS'bogus'
p4025
I2
sS'epic'
p4026
I9
sS'commentator'
p4027
I1
sS'nose'
p4028
I1
sS'fed'
p4029
I3
sS'306'
p4030
I2
sS'chanting'
p4031
I1
sS'chomsky'
p4032
I2
sS'slams'
p4033
I16
sS'beans'
p4034
I1
sS'bluster'
p4035
I1
sS'jimmy'
p4036
I1
sS'cbs4'
p4037
I1
sS'shinzo'
p4038
I1
sS'beatdown'
p4039
I2
sS'nsa'
p4040
I1
sS'framed'
p4041
I1
sS'durchsetzen'
p4042
I1
sS'steven'
p4043
I1
sS'lesson'
p4044
I1
sS'nsw'
p4045
I2
sS'doll'
p4046
I1
sS'pharmaceuticals'
p4047
I1
sS'forward'
p4048
I3
sS'keating'
p4049
I1
sS'translate'
p4050
I1
sS'murphy'
p4051
I1
sS'immigration'
p4052
I25
sS'boys'
p4053
I1
sS'gallup'
p4054
I1
sS'hopes'
p4055
I6
sS'directed'
p4056
I1
sS'devastating'
p4057
I3
sS'necks'
p4058
I1
sS'cafe'
p4059
I1
sS'intensifying'
p4060
I1
sS'assassinate'
p4061
I2
sS'fights'
p4062
I1
sS'intensifies'
p4063
I2
sS'prepared'
p4064
I1
sS'intensified'
p4065
I1
sS'prepares'
p4066
I6
sS'hanson'
p4067
I3
sS'statesman'
p4068
I2
sS'implies'
p4069
I1
sS'bankers'
p4070
I2
sS'responded'
p4071
I1
sS'implied'
p4072
I1
sS'rallies'
p4073
I6
sS'2008'
p4074
I3
sS'portraying'
p4075
I3
sS'jason'
p4076
I1
sS'restraining'
p4077
I1
sS'rants'
p4078
I2
sS'pardoned'
p4079
I1
sS'arpaio'
p4080
I2
sS'vietnamese'
p4081
I1
sS'pocahontas'
p4082
I2
sS'brzezinski'
p4083
I2
sS'helps'
p4084
I1
sS'maryland'
p4085
I4
sS'stabbings'
p4086
I1
sS'queen'
p4087
I3
sS'putting'
p4088
I2
sS'accuse'
p4089
I1
sS'assad'
p4090
I2
sS'entire'
p4091
I1
sS'knight'
p4092
I2
sS'shock'
p4093
I12
sS'populist'
p4094
I1
sS'prototypes'
p4095
I1
sS'populism'
p4096
I3
sS'mobilize'
p4097
I2
sS'havent'
p4098
I1
sS'bernie'
p4099
I5
sS'playmate'
p4100
I1
sS'depression'
p4101
I1
sS'staffers'
p4102
I2
sS'chicago'
p4103
I1
sS'giving'
p4104
I2
sS'anthem'
p4105
I3
sS'furth'
p4106
I1
sS'access'
p4107
I4
sS'pleading'
p4108
I1
sS'body'
p4109
I2
sS'exchange'
p4110
I3
sS'intercept'
p4111
I2
sS'healing'
p4112
I1
sS'others'
p4113
I1
sS'hobart'
p4114
I1
sS'sing'
p4115
I1
sS'extreme'
p4116
I3
sS'remark'
p4117
I1
sS'weinstein'
p4118
I2
sS'32'
p4119
I1
sS'30'
p4120
I3
sS'37'
p4121
I1
sS'35'
p4122
I3
sS'34'
p4123
I1
sS'haitians'
p4124
I1
sS'existent'
p4125
I1
sS'implement'
p4126
I1
sS'named'
p4127
I4
sS'presidents'
p4128
I3
sS'private'
p4129
I4
sS'limo'
p4130
I1
sS'scandal'
p4131
I5
sS'presidente'
p4132
I1
sS'gauging'
p4133
I1
sS'hammered'
p4134
I1
sS'nobel'
p4135
I1
sS'themselves'
p4136
I1
sS'train'
p4137
I1
sS'ashamed'
p4138
I2
sS'iii'
p4139
I4
sS'hints'
p4140
I2
sS'account'
p4141
I3
sS'fooling'
p4142
I1
sS'f'
p4143
I11
sS'nafta'
p4144
I4
sS'praise'
p4145
I2
sS'smear'
p4146
I5
sS'closing'
p4147
I1
sS'didnt'
p4148
I13
sS'proportions'
p4149
I1
sS'native'
p4150
I1
sS'democracy'
p4151
I1
sS'afd'
p4152
I1
sS'holds'
p4153
I7
sS'regions'
p4154
I1
sS'melts'
p4155
I1
sS'stock'
p4156
I2
sS'profile'
p4157
I1
sS'buildings'
p4158
I1
sS'waters'
p4159
I2
sS'collection'
p4160
I1
sS'nullify'
p4161
I1
sS'united'
p4162
I14
sS'bluff'
p4163
I1
sS'primera'
p4164
I1
sS'likud'
p4165
I1
sS'chalkings'
p4166
I1
sS'lakshmima'
p4167
I1
sS'geopolitics'
p4168
I5
sS'inaugural'
p4169
I1
sS'ivana'
p4170
I2
sS'shreds'
p4171
I1
sS'subpoenaed'
p4172
I1
sS'electors'
p4173
I2
sS'nasty'
p4174
I4
sS'le'
p4175
I10
sS'la'
p4176
I7
sS'll'
p4177
I7
sS'labor'
p4178
I1
sS'lu'
p4179
I1
sS'revives'
p4180
I1
sS'criminal'
p4181
I2
sS'sjws'
p4182
I1
sS'extradition'
p4183
I2
sS'dad'
p4184
I1
sS'greater'
p4185
I1
sS'later'
p4186
I1
sS'dan'
p4187
I2
sS'spell'
p4188
I2
sS'mention'
p4189
I2
sS'cutting'
p4190
I1
sS'mandate'
p4191
I3
sS'day'
p4192
I28
sS'applicants'
p4193
I1
sS'warned'
p4194
I3
sS'identified'
p4195
I2
sS'morris'
p4196
I1
sS'bromance'
p4197
I1
sS'virulent'
p4198
I1
sS'accusers'
p4199
I7
sS'pivot'
p4200
I1
sS'sexual'
p4201
I12
sS'rex'
p4202
I7
sS'announces'
p4203
I14
sS'rep'
p4204
I1
sS'mate'
p4205
I2
sS'arkansas'
p4206
I1
sS'lecture'
p4207
I1
sS'announced'
p4208
I3
sS'frank'
p4209
I2
sS'payroll'
p4210
I2
sS'clarify'
p4211
I1
sS'approaches'
p4212
I2
sS'que'
p4213
I4
sS'backwards'
p4214
I1
sS'yard'
p4215
I1
sS'south'
p4216
I12
sS'sack'
p4217
I1
sS'puppet'
p4218
I2
sS'vandal'
p4219
I1
sS'vulgar'
p4220
I6
sS'palestine'
p4221
I2
sS'nobody'
p4222
I4
sS'loved'
p4223
I1
sS'swedes'
p4224
I1
sS'sweden'
p4225
I2
sS'loves'
p4226
I2
sS'flashes'
p4227
I2
sS'waterboarding'
p4228
I1
sS'have'
p4229
I41
sS'apparently'
p4230
I2
sS'mic'
p4231
I1
sS'mid'
p4232
I1
sS'sexier'
p4233
I1
sS'concerns'
p4234
I10
sS'neomasculinity'
p4235
I2
sS'spics'
p4236
I1
sS'savages'
p4237
I1
sS'sisi'
p4238
I2
sS'pausing'
p4239
I1
sS'sally'
p4240
I1
sS'gather'
p4241
I1
sS'request'
p4242
I1
sS'absurd'
p4243
I1
sS'medvedev'
p4244
I1
sS'text'
p4245
I1
sS'supported'
p4246
I1
sS'traitor'
p4247
I1
sS'rebuke'
p4248
I2
sS'supporter'
p4249
I33
sS'staff'
p4250
I7
sS'knowledge'
p4251
I8
sS'sparks'
p4252
I5
sS'colbert'
p4253
I2
sS'fumbles'
p4254
I1
sS'betsy'
p4255
I1
sS'equilibrium'
p4256
I1
sS'marblenecltr'
p4257
I1
sS'beat'
p4258
I1
sS'whistleblower'
p4259
I1
sS'organ'
p4260
I1
sS'calling'
p4261
I5
sS'unabated'
p4262
I1
sS'shapiro'
p4263
I1
sS'national'
p4264
I24
sS'showdown'
p4265
I1
sS'we'
p4266
I35
sS'awaits'
p4267
I2
sS'maddow'
p4268
I4
sS'extradite'
p4269
I1
sS'discounts'
p4270
I2
sS'difficulties'
p4271
I1
sS'badges'
p4272
I1
sS'confusion'
p4273
I4
sS'progress'
p4274
I3
sS'janet'
p4275
I3
sS'emitted'
p4276
I1
sS'deliver'
p4277
I5
sS'willing'
p4278
I2
sS'robberies'
p4279
I1
sS'joke'
p4280
I1
sS'taking'
p4281
I8
sS'kosher'
p4282
I2
sS'revokes'
p4283
I1
sS'busted'
p4284
I8
sS'retweets'
p4285
I2
sS'otherwise'
p4286
I1
sS'comment'
p4287
I35
sS'statues'
p4288
I1
sS'ambushed'
p4289
I1
sS'brennan'
p4290
I2
sS'laugh'
p4291
I2
sS'unearthed'
p4292
I1
sS'pouring'
p4293
I1
sS'newt'
p4294
I2
sS'annonce'
p4295
I1
sS'finishes'
p4296
I1
sS'received'
p4297
I1
sS'tense'
p4298
I1
sS'volunteer'
p4299
I1
sS'multi'
p4300
I1
sS'edging'
p4301
I1
sS'appearance'
p4302
I1
sS'promotes'
p4303
I2
sS'promoted'
p4304
I1
sS'inherits'
p4305
I1
sS'almost'
p4306
I2
sS'breitbartistan'
p4307
I1
sS'narendra'
p4308
I2
sS'helped'
p4309
I7
sS'arabia'
p4310
I5
sS'partner'
p4311
I2
sS'administration'
p4312
I23
sS'slammed'
p4313
I1
sS'powell'
p4314
I3
sS'tighten'
p4315
I1
sS'samantha'
p4316
I2
sS'reporting'
p4317
I2
sS'giuliani'
p4318
I3
sS'judgment'
p4319
I1
sS'scholars'
p4320
I1
sS'yates'
p4321
I1
sS'seth'
p4322
I2
sS'thought'
p4323
I4
sS'sets'
p4324
I2
sS'position'
p4325
I1
sS'latest'
p4326
I11
sS'norpoth'
p4327
I1
sS'barking'
p4328
I2
sS'executive'
p4329
I17
sS'domestic'
p4330
I2
sS'dakota'
p4331
I2
sS'protecting'
p4332
I4
sS'taken'
p4333
I4
sS'flee'
p4334
I1
sS'gma'
p4335
I1
sS'demographic'
p4336
I1
sS'mathematically'
p4337
I1
sS'add'
p4338
I2
sS'forbes'
p4339
I1
sS'niro'
p4340
I2
sS'tests'
p4341
I3
sS'twats'
p4342
I1
sS'like'
p4343
I28
sS'success'
p4344
I1
sS'admitted'
p4345
I2
sS'journalist'
p4346
I4
sS'works'
p4347
I1
sS'italian'
p4348
I1
sS'pauline'
p4349
I1
sS'alive'
p4350
I1
sS'hair'
p4351
I1
sS'paddock'
p4352
I2
sS'happens'
p4353
I5
sS'unpredictable'
p4354
I1
sS'hurricane'
p4355
I6
sS'chains'
p4356
I1
sS'host'
p4357
I6
sS'worthy'
p4358
I2
sS'panel'
p4359
I5
sS'waving'
p4360
I1
sS'channelling'
p4361
I1
sS'nationals'
p4362
I1
sS'flake'
p4363
I2
sS'tomi'
p4364
I1
sS'preet'
p4365
I1
sS'conway'
p4366
I4
sS'billions'
p4367
I2
sS'brands'
p4368
I1
sS'guard'
p4369
I2
sS'doesnt'
p4370
I8
sS'female'
p4371
I7
sS'demeanour'
p4372
I1
sS'rushed'
p4373
I5
sS'toutes'
p4374
I1
sS'rushes'
p4375
I1
sS'biggest'
p4376
I6
sS'hotspots'
p4377
I1
sS'buy'
p4378
I2
sS'brand'
p4379
I3
sS'but'
p4380
I24
sS'embargo'
p4381
I1
sS'wise'
p4382
I1
sS'glory'
p4383
I1
sS'wish'
p4384
I1
sS'j'
p4385
I5
sS'flip'
p4386
I1
sS'minutes'
p4387
I2
sS'supreme'
p4388
I13
sS'pin'
p4389
I1
sS'deaths'
p4390
I1
sS'domino'
p4391
I1
sS'romney'
p4392
I6
sS'topless'
p4393
I1
sS'pig'
p4394
I2
sS'our'
p4395
I1
sS'shooting'
p4396
I7
sS'proceeds'
p4397
I1
sS'49'
p4398
I1
sS'dressed'
p4399
I1
sS'44'
p4400
I2
sS'42'
p4401
I3
sS'43'
p4402
I1
sS'satirise'
p4403
I1
sS'annouces'
p4404
I1
sS'dresses'
p4405
I1
sS'montel'
p4406
I1
sS'semen'
p4407
I1
sS'cheque'
p4408
I1
sS'christians'
p4409
I1
sS'stirred'
p4410
I1
sS'nevertrump'
p4411
I1
sS'yell'
p4412
I1
sS'8th'
p4413
I1
sS'hats'
p4414
I1
sS'pide'
p4415
I1
sS'hath'
p4416
I1
sS'sleep'
p4417
I1
sS'deri'
p4418
I1
sS'hating'
p4419
I1
sS'pheasant'
p4420
I1
sS'nwo'
p4421
I1
sS'hate'
p4422
I10
sS'assembled'
p4423
I1
sS'replacements'
p4424
I1
sS'paris'
p4425
I26
sS'tweet'
p4426
I17
sS'under'
p4427
I21
sS'forbidden'
p4428
I1
sS'divergent'
p4429
I1
sS'softener'
p4430
I1
sS'risk'
p4431
I4
sS'rise'
p4432
I8
sS'every'
p4433
I11
sS'jack'
p4434
I1
sS'school'
p4435
I6
sS'34m'
p4436
I1
sS'leaders'
p4437
I17
sS'guidelines'
p4438
I1
sS'bridgitte'
p4439
I1
sS'street'
p4440
I19
sS'streep'
p4441
I2
sS'blue'
p4442
I3
sS'hide'
p4443
I1
sS'beaten'
p4444
I7
sS'liberty'
p4445
I13
sS'daesh'
p4446
I1
sS'endorse'
p4447
I5
sS'dauphin'
p4448
I1
sS'seeks'
p4449
I5
sS'ramps'
p4450
I1
sS'hundreds'
p4451
I1
sS'path'
p4452
I5
sS'generals'
p4453
I3
sS'leaves'
p4454
I6
sS'changed'
p4455
I7
sS'analysts'
p4456
I2
sS'changes'
p4457
I4
sS'changer'
p4458
I1
sS'pendant'
p4459
I1
sS'ridiculed'
p4460
I1
sS'julie'
p4461
I2
sS'advisor'
p4462
I6
sS'julia'
p4463
I1
sS'patience'
p4464
I1
sS'heathrow'
p4465
I1
sS'taiwans'
p4466
I1
sS'would'
p4467
I30
sS'idyll'
p4468
I1
sS'clickhole'
p4469
I1
sS'raids'
p4470
I1
sS'spike'
p4471
I1
sS'preview'
p4472
I1
sS'musk'
p4473
I2
sS'trumprolled'
p4474
I1
sS'grief'
p4475
I2
sS'phone'
p4476
I13
sS'ardently'
p4477
I1
sS'muss'
p4478
I1
sS'must'
p4479
I13
sS'shoot'
p4480
I2
sS'join'
p4481
I2
sS'dodd'
p4482
I2
sS'daft'
p4483
I1
sS'install'
p4484
I1
sS'mr'
p4485
I10
sS'my'
p4486
I12
sS'estate'
p4487
I1
sS'keep'
p4488
I3
sS'end'
p4489
I13
sS'righted'
p4490
I1
sS'doanld'
p4491
I1
sS'sitting'
p4492
I5
sS'writers'
p4493
I8
sS'accusations'
p4494
I3
sS'badly'
p4495
I1
sS'mess'
p4496
I2
sS'salsa'
p4497
I1
sS'amid'
p4498
I7
sS'funniest'
p4499
I1
sS'ultimate'
p4500
I4
sS'executed'
p4501
I2
sS'flynns'
p4502
I3
sS'over'
p4503
I85
sS'london'
p4504
I3
sS'imf'
p4505
I4
sS'expectations'
p4506
I1
sS'destroyed'
p4507
I10
sS'edits'
p4508
I1
sS'iowa'
p4509
I4
sS'roost'
p4510
I1
sS'tourism'
p4511
I5
sS'alex'
p4512
I1
sS'chuck'
p4513
I1
sS'mcfaul'
p4514
I1
sS'affiliate'
p4515
I1
sS'victory'
p4516
I73
sS'each'
p4517
I2
sS'lasting'
p4518
I2
sS'signing'
p4519
I1
sS'group'
p4520
I4
sS'ghosts'
p4521
I1
sS'saturday'
p4522
I5
sS'gol'
p4523
I1
sS'gon'
p4524
I1
sS'driving'
p4525
I2
sS'god'
p4526
I3
sS'psychic'
p4527
I1
sS'washed'
p4528
I1
sS'adjust'
p4529
I2
sS'got'
p4530
I10
sS'gov'
p4531
I2
sS'gop'
p4532
I16
sS'independence'
p4533
I3
sS'arizona'
p4534
I6
sS'hemorrhaging'
p4535
I1
sS'icke'
p4536
I1
sS'free'
p4537
I8
sS'trumpcare'
p4538
I1
sS'boosting'
p4539
I1
sS'wanted'
p4540
I3
sS'correctness'
p4541
I2
sS'days'
p4542
I20
sS'tolerant'
p4543
I1
sS'pence'
p4544
I14
sS'already'
p4545
I11
sS'attractions'
p4546
I1
sS'primary'
p4547
I3
sS'rank'
p4548
I1
sS'hearing'
p4549
I3
sS'rant'
p4550
I3
sS'scissors'
p4551
I1
sS'revival'
p4552
I1
sS'top'
p4553
I20
sS'tot'
p4554
I1
sS'ballistic'
p4555
I1
sS'too'
p4556
I6
sS'tom'
p4557
I1
sS'urban'
p4558
I1
sS'murder'
p4559
I1
sS'brushes'
p4560
I1
sS'serve'
p4561
I2
sS'took'
p4562
I5
sS'negotiating'
p4563
I1
sS'western'
p4564
I4
sS'abandoning'
p4565
I1
sS'brushed'
p4566
I1
sS'nominate'
p4567
I1
sS'immigrants'
p4568
I5
sS'trumpland'
p4569
I3
sS'budget'
p4570
I11
sS'bridge'
p4571
I1
sS'fashion'
p4572
I1
sS'ran'
p4573
I1
sS'outperforms'
p4574
I1
sS'rap'
p4575
I5
sS'screws'
p4576
I1
sS'ray'
p4577
I1
sS'isolated'
p4578
I1
sS'hatch'
p4579
I1
sS'rides'
p4580
I1
sS'rider'
p4581
I1
sS'detained'
p4582
I1
sS'totalement'
p4583
I1
sS'abc'
p4584
I4
sS'commanding'
p4585
I1
sS'rogers'
p4586
I1
sS'flop'
p4587
I1
sS'pimco'
p4588
I1
sS'constance'
p4589
I1
sS'sanctuary'
p4590
I3
sS'pope'
p4591
I3
sS'saga'
p4592
I2
sS'labels'
p4593
I2
sS'radio'
p4594
I3
sS'deniro'
p4595
I1
sS'earth'
p4596
I1
sS'whitehouse'
p4597
I1
sS'domicilio'
p4598
I1
sS'spite'
p4599
I1
sS'delays'
p4600
I2
sS'minnesota'
p4601
I1
sS'watch'
p4602
I36
sS'amazon'
p4603
I1
sS'bei'
p4604
I1
sS'despite'
p4605
I9
sS'report'
p4606
I18
sS'gareth'
p4607
I1
sS'countries'
p4608
I7
sS'spokesperson'
p4609
I1
sS'collusion'
p4610
I1
sS'twice'
p4611
I1
sS'erupt'
p4612
I1
sS'shots'
p4613
I1
sS'estados'
p4614
I1
sS'lavrov'
p4615
I1
sS'swept'
p4616
I1
sS'resist'
p4617
I3
sS'corrupt'
p4618
I2
sS'capacity'
p4619
I1
sS'spontaneou'
p4620
I1
sS'interviewing'
p4621
I1
sS'sherrif'
p4622
I1
sS'mug'
p4623
I1
sS'finger'
p4624
I3
sS'hopefully'
p4625
I1
sS'deposed'
p4626
I1
sS'weak'
p4627
I2
sS'boss'
p4628
I8
sS'wear'
p4629
I1
sS'news'
p4630
I64
sS'blasted'
p4631
I1
sS'improve'
p4632
I2
sS'faced'
p4633
I2
sS'protect'
p4634
I2
sS'accused'
p4635
I5
sS'peacenik'
p4636
I1
sS'sympathises'
p4637
I1
sS'players'
p4638
I5
sS'games'
p4639
I2
sS'spurs'
p4640
I2
sS'faces'
p4641
I9
sS'agitators'
p4642
I1
sS'epidemic'
p4643
I1
sS'trust'
p4644
I4
sS'hitler'
p4645
I5
sS'conference'
p4646
I11
sS'aback'
p4647
I2
sS'victimizing'
p4648
I1
sS'been'
p4649
I11
sS'backlash'
p4650
I4
sS'confident'
p4651
I2
sS'expected'
p4652
I3
sS'anchors'
p4653
I1
sS'republicans'
p4654
I16
sS'speeches'
p4655
I2
sS'catch'
p4656
I2
sS'backdown'
p4657
I2
sS'heartland'
p4658
I1
sS'n'
p4659
I7
sS'lesser'
p4660
I2
sS'dept'
p4661
I1
sS'depp'
p4662
I2
sS'experts'
p4663
I8
sS'brutal'
p4664
I2
sS'ramifications'
p4665
I1
sS'myst'
p4666
I1
sS'suggest'
p4667
I1
sS'complex'
p4668
I1
sS'several'
p4669
I2
sS'pick'
p4670
I17
sS'berserk'
p4671
I1
sS'europes'
p4672
I1
sS'wadah'
p4673
I1
sS'charlie'
p4674
I2
sS'greatest'
p4675
I4
sS'mathews'
p4676
I1
sS'mother'
p4677
I4
sS'injuring'
p4678
I1
sS'alabama'
p4679
I4
sS'proposed'
p4680
I2
sS'proposes'
p4681
I2
sS'trashes'
p4682
I1
sS'trashed'
p4683
I1
sS'gave'
p4684
I9
sS'casting'
p4685
I1
sS'skeptics'
p4686
I1
sS'advances'
p4687
I1
sS'breaks'
p4688
I10
sS'cultural'
p4689
I1
sS'donal'
p4690
I1
sS'newcastle'
p4691
I2
sS'judge'
p4692
I10
sS'vetting'
p4693
I1
sS'apart'
p4694
I1
sS'exxon'
p4695
I1
sS'gift'
p4696
I1
sS'hunt'
p4697
I1
sS'50'
p4698
I4
sS'officer'
p4699
I1
sS'hung'
p4700
I1
sS'successfully'
p4701
I1
sS'proudly'
p4702
I1
sS'jennifer'
p4703
I1
sS'donald'
p4704
I1056
sS'usher'
p4705
I1
sS'election'
p4706
I161
sS'displeasure'
p4707
I1
sS'escape'
p4708
I1
sS'combat'
p4709
I1
sS'zionist'
p4710
I3
sS'ice'
p4711
I2
sS'everything'
p4712
I2
sS'cnn'
p4713
I21
sS'christmas'
p4714
I2
sS'deleted'
p4715
I1
sS'discount'
p4716
I1
sS'attacks'
p4717
I17
sS'undocumented'
p4718
I3
sS'dinner'
p4719
I6
sS'misleading'
p4720
I3
sS'plus'
p4721
I2
sS'mismo'
p4722
I1
sS'curry'
p4723
I1
sS'duke'
p4724
I9
sS'donates'
p4725
I1
sS'civil'
p4726
I8
sS'cauldron'
p4727
I1
sS'electorate'
p4728
I1
sS'rely'
p4729
I1
sS'class'
p4730
I7
sS'virgin'
p4731
I2
sS'anderson'
p4732
I1
sS'lago'
p4733
I2
sS'head'
p4734
I8
sS'attempted'
p4735
I1
sS'differences'
p4736
I2
sS'heat'
p4737
I2
sS'hear'
p4738
I2
sS'solar'
p4739
I2
sS'removed'
p4740
I3
sS'humiliate'
p4741
I1
sS'counsel'
p4742
I2
sS'muster'
p4743
I1
sS'clubs'
p4744
I1
sS'trumpkins'
p4745
I1
sS'fury'
p4746
I2
sS'horta'
p4747
I2
sS'shines'
p4748
I1
sS'trip'
p4749
I10
sS'liberalism'
p4750
I1
sS'regime'
p4751
I1
sS'no'
p4752
I32
sS'na'
p4753
I1
sS'nc'
p4754
I1
sS'when'
p4755
I21
sS'til'
p4756
I1
sS'ny'
p4757
I6
sS'setting'
p4758
I2
sS'papers'
p4759
I1
sS'tie'
p4760
I1
sS'nt'
p4761
I1
sS'phoenix'
p4762
I4
sS'football'
p4763
I1
sS'stops'
p4764
I2
sS'younger'
p4765
I1
sS'longer'
p4766
I1
sS'australians'
p4767
I2
sS'uncovered'
p4768
I1
sS'serious'
p4769
I3
sS'coach'
p4770
I1
sS'ron'
p4771
I2
sS'impression'
p4772
I2
sS'focus'
p4773
I5
sS'leads'
p4774
I4
sS'roy'
p4775
I7
sS'row'
p4776
I2
sS'meryl'
p4777
I2
sS'passage'
p4778
I1
sS'environment'
p4779
I1
sS'charge'
p4780
I2
sS'promoting'
p4781
I1
sS'hammers'
p4782
I1
sS'henderson'
p4783
I1
sS'pompeo'
p4784
I2
sS'intolerant'
p4785
I1
sS'cool'
p4786
I1
sS'valentin'
p4787
I1
sS'philippines'
p4788
I4
sS'posts'
p4789
I7
sS'hawaii'
p4790
I1
sS'standards'
p4791
I1
sS'denounces'
p4792
I3
sS'quick'
p4793
I3
sS'farren'
p4794
I1
sS'pork'
p4795
I1
sS'says'
p4796
I224
sS'pms'
p4797
I1
sS'trend'
p4798
I1
sS'cyber'
p4799
I3
sS'pedo'
p4800
I1
sS'constitution'
p4801
I2
sS'debate'
p4802
I22
sS'goes'
p4803
I14
sS'water'
p4804
I1
sS'witch'
p4805
I1
sS'groups'
p4806
I2
sS'shove'
p4807
I1
sS'guilty'
p4808
I2
sS'proud'
p4809
I1
sS'humour'
p4810
I1
sS'compare'
p4811
I1
sS'morale'
p4812
I1
sS'bribery'
p4813
I1
sS'crisis'
p4814
I9
sS'sledgehammer'
p4815
I3
sS'negress'
p4816
I1
sS'russell'
p4817
I1
sS'australias'
p4818
I4
sS'tillerson'
p4819
I10
sS'sports'
p4820
I1
sS'msm'
p4821
I1
sS'bases'
p4822
I1
sS'criteria'
p4823
I1
sS'australian'
p4824
I9
sS'today'
p4825
I7
sS'akhmetshin'
p4826
I1
sS'riot'
p4827
I2
sS'sessions'
p4828
I11
sS'employee'
p4829
I3
sS'dismal'
p4830
I1
sS'prophecy'
p4831
I2
sS'julius'
p4832
I1
sS'thousands'
p4833
I1
sS'laughter'
p4834
I2
sS'trump'
p4835
I3021
sS'downfall'
p4836
I1
sS'construir'
p4837
I1
sS'stroke'
p4838
I1
sS'cube'
p4839
I1
sS'provoke'
p4840
I2
sS'watching'
p4841
I1
sS'1'
p4842
I7
sS'rubio'
p4843
I1
sS'vital'
p4844
I1
sS'fourth'
p4845
I1
sS'endorsement'
p4846
I2
sS'ensure'
p4847
I1
sS'speaks'
p4848
I3
sS'begs'
p4849
I3
sS'unbelievable'
p4850
I1
sS'crashes'
p4851
I1
sS'information'
p4852
I20
sS'fascist'
p4853
I1
sS'granddaughter'
p4854
I2
sS'fascism'
p4855
I1
sS'birthday'
p4856
I1
sS'classroom'
p4857
I1
sS'mayweather'
p4858
I2
sS'joins'
p4859
I4
sS'accolades'
p4860
I1
sS'blocked'
p4861
I2
sS'offers'
p4862
I6
sS'pays'
p4863
I2
sS'loophole'
p4864
I1
sS'happened'
p4865
I10
sS'qualifier'
p4866
I1
sS'unveiling'
p4867
I1
sS'condescendingly'
p4868
I1
sS'hamilton'
p4869
I2
sS'cuchitril'
p4870
I1
sS'term'
p4871
I5
sS'name'
p4872
I3
sS'reince'
p4873
I4
sS'corners'
p4874
I1
sS'possibilities'
p4875
I2
sS'realise'
p4876
I1
sS'regulation'
p4877
I1
sS'farewell'
p4878
I1
sS'begun'
p4879
I2
sS'tumultuous'
p4880
I1
sS'plans'
p4881
I16
sS'hacker'
p4882
I1
sS'profit'
p4883
I1
sS'tensions'
p4884
I4
sS'factory'
p4885
I1
sS'cancels'
p4886
I2
sS'bless'
p4887
I1
sS'theory'
p4888
I3
sS'booby'
p4889
I1
sS'albuquerque'
p4890
I1
sS'zuckerberg'
p4891
I1
sS'flare'
p4892
I1
sS'turn'
p4893
I5
sS'turk'
p4894
I1
sS'swing'
p4895
I5
sS'tanking'
p4896
I1
sS'childhood'
p4897
I1
sS'clevelander'
p4898
I1
sS'multibillion'
p4899
I1
sS'george'
p4900
I20
sS'millions'
p4901
I5
sS'given'
p4902
I4
sS'ian'
p4903
I1
sS'district'
p4904
I1
sS'stuck'
p4905
I2
sS'trillion'
p4906
I4
sS'returns'
p4907
I4
sS'regierungsbildung'
p4908
I1
sS'terrifying'
p4909
I3
sS'lobbyists'
p4910
I1
sS'convention'
p4911
I1
sS'legally'
p4912
I1
sS'scarborough'
p4913
I2
sS'ndchen'
p4914
I1
sS'gives'
p4915
I13
sS'exploring'
p4916
I1
sS'tempers'
p4917
I1
sS'appointees'
p4918
I1
sS'season'
p4919
I1
sS'montenegro'
p4920
I1
sS'cops'
p4921
I1
sS'huw'
p4922
I1
sS'mantenimiento'
p4923
I1
sS'shirley'
p4924
I1
sS'copy'
p4925
I2
sS'souriant'
p4926
I1
sS'wide'
p4927
I2
sS'unfortunately'
p4928
I1
sS'diplomatic'
p4929
I2
sS'spokeswoman'
p4930
I2
sS'officials'
p4931
I9
sS'cards'
p4932
I3
sS'frydenberg'
p4933
I1
sS'outcome'
p4934
I3
sS'oath'
p4935
I1
sS'pre'
p4936
I3
sS'ana'
p4937
I1
sS'pro'
p4938
I11
sS'reno'
p4939
I4
sS'rent'
p4940
I1
sS'sells'
p4941
I1
sS'confesses'
p4942
I1
sS'any'
p4943
I4
sS'corbett'
p4944
I1
sS'crowder'
p4945
I1
sS'trumpess'
p4946
I1
sS'urge'
p4947
I5
sS'armando'
p4948
I1
sS'multiple'
p4949
I1
sS'ukrainian'
p4950
I2
sS'falls'
p4951
I5
sS'rematch'
p4952
I1
sS'stormed'
p4953
I1
sS'icon'
p4954
I1
sS'shooter'
p4955
I1
sS'trafficking'
p4956
I1
sS'senior'
p4957
I2
sS'allegations'
p4958
I8
sS'spaces'
p4959
I1
sS'hack'
p4960
I2
sS'favor'
p4961
I5
sS'crime'
p4962
I3
sS'ssy'
p4963
I1
sS'trade'
p4964
I32
sS'reveal'
p4965
I5
sS'naked'
p4966
I1
sS'jokes'
p4967
I4
sS'paper'
p4968
I2
sS'clowns'
p4969
I1
sS'predicted'
p4970
I8
sS'ignored'
p4971
I2
sS'encourages'
p4972
I1
sS'college'
p4973
I11
sS'slashing'
p4974
I1
sS'ignores'
p4975
I3
sS'ignorer'
p4976
I1
sS'fails'
p4977
I3
sS'mortgage'
p4978
I1
sS'farmers'
p4979
I4
sS'federal'
p4980
I9
sS'review'
p4981
I5
sS'weapons'
p4982
I5
sS'outside'
p4983
I7
sS'caucus'
p4984
I1
sS'wouldve'
p4985
I1
sS'arrival'
p4986
I1
sS'rumours'
p4987
I1
sS'fearless'
p4988
I1
sS'sacked'
p4989
I1
sS'cities'
p4990
I4
sS'come'
p4991
I7
sS'reaction'
p4992
I5
sS'region'
p4993
I1
sS'quiet'
p4994
I1
sS'leftists'
p4995
I1
sS'senator'
p4996
I9
sS'deported'
p4997
I2
sS'pakistan'
p4998
I1
sS'pols'
p4999
I1
sS'afterwards'
p5000
I1
sS'color'
p5001
I7
sS'hotlines'
p5002
I1
sS'pop'
p5003
I2
sS'60'
p5004
I5
sS'61'
p5005
I2
sS'pundits'
p5006
I2
sS'babbling'
p5007
I1
sS'bizarre'
p5008
I2
sS'poll'
p5009
I21
sS'nicole'
p5010
I1
sS'smaka'
p5011
I1
sS'howard'
p5012
I1
sS'peaceful'
p5013
I2
sS'billionaires'
p5014
I2
sS'escalates'
p5015
I1
sS'500'
p5016
I2
sS'schoolboy'
p5017
I1
sS'robbed'
p5018
I2
sS'andrew'
p5019
I3
sS'mocking'
p5020
I2
sS'minister'
p5021
I4
sS'careful'
p5022
I1
sS'paying'
p5023
I2
sS'myself'
p5024
I1
sS'casa'
p5025
I2
sS'mount'
p5026
I2
sS'cash'
p5027
I1
sS'arnold'
p5028
I1
sS'cast'
p5029
I2
sS'telephone'
p5030
I1
sS'someone'
p5031
I1
sS'converts'
p5032
I1
sS'decisively'
p5033
I1
sS'revolutions'
p5034
I1
sS'vigilantes'
p5035
I1
sS'author'
p5036
I1
sS'bowl'
p5037
I1
sS'confidant'
p5038
I1
sS'check'
p5039
I2
sS'shifts'
p5040
I3
sS'manila'
p5041
I2
sS'events'
p5042
I1
sS'moronic'
p5043
I1
sS'week'
p5044
I23
sS'applaud'
p5045
I1
sS'drives'
p5046
I1
sS'director'
p5047
I17
sS'statue'
p5048
I1
sS'changing'
p5049
I1
sS'cartoon'
p5050
I1
sS'pennsylvania'
p5051
I2
sS'without'
p5052
I3
sS'relief'
p5053
I2
sS'model'
p5054
I3
sS'reward'
p5055
I1
sS'bodies'
p5056
I1
sS'tip'
p5057
I1
sS'actions'
p5058
I2
sS'violent'
p5059
I12
sS'kill'
p5060
I8
sS'baldwin'
p5061
I5
sS'kneeling'
p5062
I2
sS'blow'
p5063
I2
sS'announcement'
p5064
I10
sS'feminist'
p5065
I2
sS'except'
p5066
I3
sS'tonya'
p5067
I1
sS'lets'
p5068
I1
sS'poised'
p5069
I3
sS'disrupt'
p5070
I1
sS'kills'
p5071
I1
sS'virginia'
p5072
I2
sS'hobarts'
p5073
I1
sS'inflation'
p5074
I2
sS'schedules'
p5075
I1
sS'accepted'
p5076
I1
sS'tower'
p5077
I7
sS'shunned'
p5078
I1
sS'pacific'
p5079
I3
sS'respect'
p5080
I2
sS'pinkerton'
p5081
I1
sS'caribbean'
p5082
I1
sS'legal'
p5083
I8
sS'moon'
p5084
I4
sS'provides'
p5085
I1
sS'quitting'
p5086
I1
sS'severed'
p5087
I1
sS'poem'
p5088
I3
sS'populists'
p5089
I1
sS'nails'
p5090
I1
sS'stereotyped'
p5091
I1
sS'terrified'
p5092
I1
sS'wades'
p5093
I1
sS'ok'
p5094
I1
sS'oh'
p5095
I1
sS'of'
p5096
I378
sS'discussed'
p5097
I1
sS'farhadi'
p5098
I1
sS'stand'
p5099
I6
sS'discusses'
p5100
I2
sS'or'
p5101
I25
sS'op'
p5102
I3
sS'communication'
p5103
I1
sS'gard'
p5104
I2
sS'accounts'
p5105
I2
sS'there'
p5106
I9
sS'racism'
p5107
I3
sS'racist'
p5108
I8
sS'alleges'
p5109
I1
sS'valley'
p5110
I1
sS'energy'
p5111
I5
sS'morrison'
p5112
I1
sS'750'
p5113
I2
sS'cabinet'
p5114
I6
sS'sacks'
p5115
I2
sS'cassidy'
p5116
I1
sS'encourges'
p5117
I1
sS'taylor'
p5118
I1
sS'cbs'
p5119
I1
sS'britain'
p5120
I4
sS'intro'
p5121
I1
sS'politics'
p5122
I7
sS'bishop'
p5123
I3
sS'idiot'
p5124
I3
sS'deserve'
p5125
I2
sS'rubber'
p5126
I1
sS'5'
p5127
I14
sS'heathen'
p5128
I1
sS'trash'
p5129
I1
sS'immunity'
p5130
I1
sS'requested'
p5131
I2
sS'guam'
p5132
I4
sS'includes'
p5133
I4
sS'recognise'
p5134
I2
sS'included'
p5135
I1
sS'stocks'
p5136
I5
sS'bilateral'
p5137
I1
sS'calls'
p5138
I47
sS'wife'
p5139
I5
sS'odds'
p5140
I1
sS'curve'
p5141
I1
sS'treason'
p5142
I3
sS'directory'
p5143
I1
sS'all'
p5144
I39
sS'chinese'
p5145
I7
sS'ali'
p5146
I1
sS'lack'
p5147
I3
sS'fuego'
p5148
I1
sS'lacy'
p5149
I1
sS'alt'
p5150
I6
sS'voids'
p5151
I1
sS'als'
p5152
I1
sS'jerome'
p5153
I3
sS'homage'
p5154
I1
sS'lining'
p5155
I1
sS'diplomacy'
p5156
I4
sS'opportunities'
p5157
I2
sS'program'
p5158
I3
sS'woman'
p5159
I16
sS'worse'
p5160
I8
sS'verrender'
p5161
I1
sS'egyptian'
p5162
I1
sS'far'
p5163
I5
sS'grindr'
p5164
I1
sS'fat'
p5165
I3
sS'simpsons'
p5166
I2
sS'sons'
p5167
I2
sS'fan'
p5168
I2
sS'list'
p5169
I8
sS'occurs'
p5170
I1
sS'liars'
p5171
I1
sS'conflicted'
p5172
I1
sS'tel'
p5173
I1
sS'ten'
p5174
I1
sS'tea'
p5175
I1
sS'ted'
p5176
I1
sS'rate'
p5177
I2
sS'nbc'
p5178
I4
sS'nba'
p5179
I2
sS'sue'
p5180
I5
sS'deeply'
p5181
I1
sS'anniversary'
p5182
I1
sS'crush'
p5183
I1
sS'attitudes'
p5184
I1
sS'sur'
p5185
I1
sS'guns'
p5186
I1
sS'christian'
p5187
I6
sS'theresa'
p5188
I2
sS'behaviour'
p5189
I1
sS'bulls'
p5190
I1
sS'allows'
p5191
I4
sS'horrified'
p5192
I1
sS'suddenly'
p5193
I1
sS'warmbiers'
p5194
I1
sS'conspiring'
p5195
I1
sS'demeaned'
p5196
I1
sS'markets'
p5197
I28
sS'flat'
p5198
I4
sS'flaw'
p5199
I1
sS'knows'
p5200
I2
sS'grabbing'
p5201
I4
sS'flag'
p5202
I3
sS'floyd'
p5203
I1
sS'20000'
p5204
I1
sS'known'
p5205
I1
sS'glad'
p5206
I1
sS'edel'
p5207
I1
sS'debates'
p5208
I2
sS'v'
p5209
I5
sS'evangelicals'
p5210
I6
sS'embarrassing'
p5211
I1
sS'challenging'
p5212
I1
sS'protects'
p5213
I1
sS'arise'
p5214
I1
sS'libertarian'
p5215
I4
sS'cultivate'
p5216
I1
sS'court'
p5217
I28
sS'goal'
p5218
I2
sS'rather'
p5219
I1
sS'breaking'
p5220
I27
sS'gisele'
p5221
I1
sS'explains'
p5222
I4
sS'hoaxer'
p5223
I1
sS'mould'
p5224
I1
sS'sandwich'
p5225
I1
sS'short'
p5226
I7
sS'shady'
p5227
I1
sS'departure'
p5228
I1
sS'divergences'
p5229
I1
sS'emmanuel'
p5230
I2
sS'major'
p5231
I19
sS'disabled'
p5232
I3
sS'logan'
p5233
I1
sS'interpersonal'
p5234
I1
sS'developer'
p5235
I1
sS'style'
p5236
I2
sS'pray'
p5237
I2
sS'assaulting'
p5238
I2
sS'beyonce'
p5239
I1
sS'strange'
p5240
I4
sS'stephen'
p5241
I5
sS'might'
p5242
I7
sS'alter'
p5243
I1
sS'somebody'
p5244
I2
sS'predator'
p5245
I1
sS'number'
p5246
I4
sS'milestone'
p5247
I1
sS'communities'
p5248
I2
sS'bollywood'
p5249
I1
sS'bigger'
p5250
I1
sS'friendship'
p5251
I1
sS'weighs'
p5252
I1
sS'moveon'
p5253
I1
sS'expect'
p5254
I4
sS'impersonation'
p5255
I1
sS'divide'
p5256
I1
sS'induces'
p5257
I2
sS'health'
p5258
I14
sS'hill'
p5259
I1
sS'benjamin'
p5260
I1
sS'cookie'
p5261
I1
sS'execute'
p5262
I1
sS'teach'
p5263
I2
sS'bushes'
p5264
I1
sS'cremated'
p5265
I1
sS'gillard'
p5266
I1
sS'threat'
p5267
I13
sS'fallen'
p5268
I2
sS'throws'
p5269
I1
sS'feed'
p5270
I1
sS'feel'
p5271
I2
sS'relate'
p5272
I1
sS'feet'
p5273
I1
sS'sympathy'
p5274
I1
sS'brave'
p5275
I3
sS'passes'
p5276
I1
sS'story'
p5277
I5
sS'scathing'
p5278
I1
sS'script'
p5279
I1
sS'leading'
p5280
I3
sS'interviews'
p5281
I1
sS'moab'
p5282
I1
sS'hangs'
p5283
I1
sS'storm'
p5284
I3
sS'store'
p5285
I2
sS'disqualification'
p5286
I1
sS'pipelines'
p5287
I2
sS'option'
p5288
I3
sS'hotel'
p5289
I10
sS'explodes'
p5290
I2
sS'king'
p5291
I3
sS'kind'
p5292
I1
sS'aims'
p5293
I1
sS'illegals'
p5294
I1
sS'risks'
p5295
I1
sS'insulted'
p5296
I1
sS'reflation'
p5297
I1
sS'strengthen'
p5298
I1
sS'imports'
p5299
I2
sS'gala'
p5300
I2
sS'hopelessly'
p5301
I1
sS'donaldbreaux'
p5302
I1
sS'chairman'
p5303
I1
sS'finding'
p5304
I1
sS'interfered'
p5305
I1
sS'electric'
p5306
I2
sS'cargo'
p5307
I1
sS'goldman'
p5308
I2
sS'reach'
p5309
I2
sS'react'
p5310
I10
sS'76'
p5311
I1
sS'75'
p5312
I1
sS'70'
p5313
I3
sS'nothing'
p5314
I5
sS'achievement'
p5315
I2
sS'victimization'
p5316
I1
sS'destruct'
p5317
I2
sS'lying'
p5318
I4
sS'cdc'
p5319
I2
sS'havoc'
p5320
I1
sS'gilded'
p5321
I1
sS'bff'
p5322
I1
sS'penalty'
p5323
I1
sS'hip'
p5324
I1
sS'sacking'
p5325
I2
sS'his'
p5326
I83
sS'founding'
p5327
I1
sS'gains'
p5328
I2
sS'alicia'
p5329
I1
sS'whistle'
p5330
I1
sS'him'
p5331
I37
sS'grievances'
p5332
I1
sS'statist'
p5333
I1
sS'activity'
p5334
I1
sS'cringe'
p5335
I1
sS'wrote'
p5336
I1
sS'stump'
p5337
I1
sS'dump'
p5338
I11
sS'intelligence'
p5339
I7
sS'defense'
p5340
I5
sS'bare'
p5341
I1
sS'are'
p5342
I64
sS'usyd'
p5343
I1
sS'threats'
p5344
I6
sS'nailed'
p5345
I1
sS'slapped'
p5346
I1
sS'corruption'
p5347
I1
sS'korea'
p5348
I79
sS'creating'
p5349
I1
sS'attention'
p5350
I3
sS'succeed'
p5351
I1
sS'opposition'
p5352
I2
sS'betrayed'
p5353
I1
sS'neocons'
p5354
I2
sS'c'
p5355
I1
sS'considerar'
p5356
I1
sS'finds'
p5357
I5
sS'reasons'
p5358
I4
sS'smith'
p5359
I1
sS'sweep'
p5360
I1
sS'improper'
p5361
I1
sS'hoaxers'
p5362
I1
sS'decline'
p5363
I1
sS'political'
p5364
I17
sS'due'
p5365
I3
sS'strategy'
p5366
I12
sS'nato'
p5367
I15
sS'brick'
p5368
I2
sS'pm'
p5369
I6
sS'referee'
p5370
I1
sS'scaramuccis'
p5371
I1
sS'demand'
p5372
I3
sS'trumpisms'
p5373
I1
sS'indefinitely'
p5374
I1
sS'tussauds'
p5375
I1
sS'behavior'
p5376
I1
sS'shortened'
p5377
I1
sS'lodges'
p5378
I1
sS'antithesis'
p5379
I1
sS'disappointing'
p5380
I1
sS'awakening'
p5381
I1
sS'lodged'
p5382
I1
sS'rig'
p5383
I2
sS'rid'
p5384
I1
sS'shirt'
p5385
I6
sS'9'
p5386
I5
sS'daughters'
p5387
I1
sS'higher'
p5388
I5
sS'literature'
p5389
I1
sS'restraint'
p5390
I1
sS'negotiate'
p5391
I1
sS'moving'
p5392
I6
sS'haga'
p5393
I1
sS'limbaugh'
p5394
I1
sS'chickens'
p5395
I1
sS'analysis'
p5396
I10
sS'cheer'
p5397
I2
sS'edge'
p5398
I1
sS'blanca'
p5399
I2
sS'repealing'
p5400
I2
sS'whitson'
p5401
I1
sS'questions'
p5402
I6
sS'vigilant'
p5403
I1
sS'prince'
p5404
I2
sS'advisers'
p5405
I1
sS'workers'
p5406
I4
sS'eslake'
p5407
I2
sS'freefall'
p5408
I2
sS'complaint'
p5409
I1
sS'condemnation'
p5410
I3
sS'shaped'
p5411
I1
sS'confront'
p5412
I1
sS'ignore'
p5413
I2
sS'almanach'
p5414
I1
sS'campagne'
p5415
I1
sS'empi'
p5416
I1
sS'candy'
p5417
I1
sS'chumps'
p5418
I1
sS'prof'
p5419
I1
sS'jumps'
p5420
I2
sS'refuses'
p5421
I6
sS'intense'
p5422
I1
sS'vaccine'
p5423
I1
sS'unconfirmed'
p5424
I1
sS'pipeline'
p5425
I3
sS'cautious'
p5426
I2
sS'recites'
p5427
I2
sS'firing'
p5428
I3
sS'range'
p5429
I1
sS'greets'
p5430
I1
sS'hatred'
p5431
I2
sS'complimentary'
p5432
I1
sS'countercurrents'
p5433
I1
sS'impressed'
p5434
I1
sS'question'
p5435
I5
sS'fast'
p5436
I1
sS'rowe'
p5437
I1
sS'rinat'
p5438
I1
sS'belonged'
p5439
I1
sS'files'
p5440
I5
sS'mountains'
p5441
I1
sS'memory'
p5442
I2
sS'repeatedly'
p5443
I3
sS'junior'
p5444
I1
sS'patriot'
p5445
I1
sS'stalking'
p5446
I2
sS'interventionist'
p5447
I2
sS'pres'
p5448
I1
sS'highlight'
p5449
I1
sS'z'
p5450
I1
sS'called'
p5451
I9
sS'freak'
p5452
I1
sS'gunpoint'
p5453
I2
sS'divisive'
p5454
I3
sS'associates'
p5455
I1
sS'rally'
p5456
I42
sS'graham'
p5457
I2
sS'independents'
p5458
I2
sS'nostradamus'
p5459
I2
sS'tone'
p5460
I1
sS'peace'
p5461
I12
sS'backs'
p5462
I3
sS'income'
p5463
I3
sS'mock'
p5464
I2
sS'nice'
p5465
I1
sS'deadbeating'
p5466
I1
sS'helping'
p5467
I2
sS'meaning'
p5468
I1
sS'vigil'
p5469
I1
sS'suffers'
p5470
I1
sS'vice'
p5471
I4
sS'attacking'
p5472
I4
sS'nasa'
p5473
I1
sS'karma'
p5474
I1
sS'vicu'
p5475
I1
sS'once'
p5476
I4
sS'pervert'
p5477
I1
sS'resistance'
p5478
I2
sS'alien'
p5479
I1
sS'vanga'
p5480
I1
sS'gang'
p5481
I1
sS'mcmullin'
p5482
I1
sS'contributions'
p5483
I1
sS'issues'
p5484
I8
sS'stable'
p5485
I1
sS'dramatically'
p5486
I2
sS'confirmation'
p5487
I1
sS'mainstream'
p5488
I3
sS'seizes'
p5489
I1
sS'materialise'
p5490
I1
sS'drinking'
p5491
I1
sS'toujours'
p5492
I1
sS'notes'
p5493
I1
sS'leader'
p5494
I7
sS'deals'
p5495
I3
sS'polling'
p5496
I6
sS'dealt'
p5497
I1
sS'pleas'
p5498
I1
sS'wrestling'
p5499
I2
sS'makers'
p5500
I1
sS'showcase'
p5501
I1
sS'networks'
p5502
I1
sS'waiting'
p5503
I1
sS'capital'
p5504
I7
sS'unimagineable'
p5505
I1
sS'bazinga'
p5506
I1
sS'pushing'
p5507
I1
sS'haters'
p5508
I2
sS'ukraine'
p5509
I5
sS'survivor'
p5510
I1
sS'distressed'
p5511
I1
sS'shades'
p5512
I1
sS'leaving'
p5513
I2
sS'suggests'
p5514
I2
sS'erster'
p5515
I1
sS'spicer'
p5516
I5
sS'deputy'
p5517
I1
sS'egypt'
p5518
I1
sS'volk'
p5519
I1
sS'motor'
p5520
I1
sS'apply'
p5521
I1
sS'redo'
p5522
I1
sS'bonald'
p5523
I1
sS'froh'
p5524
I1
sS'use'
p5525
I6
sS'from'
p5526
I94
sS'usa'
p5527
I6
sS'few'
p5528
I3
sS'feu'
p5529
I1
sS'timetable'
p5530
I1
sS'parliament'
p5531
I3
sS'journalists'
p5532
I2
sS'detail'
p5533
I1
sS'factor'
p5534
I2
sS'impress'
p5535
I1
sS'heil'
p5536
I1
sS'brexiteers'
p5537
I1
sS'recount'
p5538
I3
sS'women'
p5539
I21
sS'slaps'
p5540
I1
sS'dissolve'
p5541
I1
sS'proof'
p5542
I5
sS'distractions'
p5543
I1
sS'patrol'
p5544
I1
sS'tax'
p5545
I30
sS'blowback'
p5546
I1
sS'something'
p5547
I4
sS'recklessly'
p5548
I1
sS'enrique'
p5549
I1
sS'rape'
p5550
I4
sS'counting'
p5551
I3
sS'guru'
p5552
I1
sS'six'
p5553
I4
sS'struggles'
p5554
I1
sS'traders'
p5555
I1
sS'brian'
p5556
I2
sS'carrier'
p5557
I2
sS'sie'
p5558
I1
sS'slamming'
p5559
I1
sS'instead'
p5560
I3
sS'struggled'
p5561
I1
sS'panic'
p5562
I6
sS'memoir'
p5563
I1
sS'sil'
p5564
I1
sS'tension'
p5565
I1
sS'attend'
p5566
I1
sS'masks'
p5567
I3
sS'abuse'
p5568
I2
sS'light'
p5569
I2
sS'honestly'
p5570
I1
sS'aviv'
p5571
I1
sS'sanctioned'
p5572
I2
sS'reeling'
p5573
I1
sS'looks'
p5574
I5
sS'boosts'
p5575
I3
sS'glee'
p5576
I1
sS'restrain'
p5577
I1
sS'choose'
p5578
I3
sS'reilly'
p5579
I1
sS'covered'
p5580
I1
sS'crowds'
p5581
I4
sS'violating'
p5582
I2
sS'crash'
p5583
I2
sS'orthodox'
p5584
I1
sS'practice'
p5585
I1
sS'ferguson'
p5586
I3
sS'souza'
p5587
I2
sS'republican'
p5588
I28
sS'investor'
p5589
I1
sS'landings'
p5590
I1
sS'nfl'
p5591
I10
sS'billy'
p5592
I2
sS'rockets'
p5593
I1
sS'trap'
p5594
I2
sS'erratic'
p5595
I1
sS'barnett'
p5596
I1
sS'related'
p5597
I1
sS'83'
p5598
I1
sS'87'
p5599
I1
sS'out'
p5600
I67
sS'respects'
p5601
I1
sS'tabloid'
p5602
I1
sS'lushsux'
p5603
I1
sS'cocktail'
p5604
I2
sS'sentiment'
p5605
I1
sS'chaos'
p5606
I13
sS'deloitte'
p5607
I1
sS'supports'
p5608
I3
sS'pruitt'
p5609
I3
sS'common'
p5610
I5
sS'disclose'
p5611
I1
sS'york'
p5612
I12
sS'conflicts'
p5613
I1
sS'philip'
p5614
I2
sS'cair'
p5615
I1
sS'g'
p5616
I1
sS'islamic'
p5617
I2
sS'conversation'
p5618
I3
sS'184'
p5619
I3
sS'adrian'
p5620
I1
sS'emmanual'
p5621
I1
sS'priority'
p5622
I1
sS'their'
p5623
I23
sS'boil'
p5624
I1
sS'shell'
p5625
I1
sS'academy'
p5626
I1
sS'doomed'
p5627
I1
sS'slides'
p5628
I2
sS'tacitly'
p5629
I1
sS'july'
p5630
I1
sS'ciobo'
p5631
I1
sS'limiting'
p5632
I1
sS'clip'
p5633
I1
sS'linked'
p5634
I3
sS'afraid'
p5635
I1
sS'russians'
p5636
I1
sS'skittles'
p5637
I1
sS'agency'
p5638
I2
sS'clash'
p5639
I5
sS'centre'
p5640
I2
sS'who'
p5641
I54
sS'hamas'
p5642
I1
sS'alarmed'
p5643
I2
sS'why'
p5644
I57
sS'deny'
p5645
I2
sS'appallingly'
p5646
I1
sS'ensues'
p5647
I1
sS'cloaked'
p5648
I1
sS'gain'
p5649
I2
sS'latinos'
p5650
I1
sS'ferrell'
p5651
I1
sS'sceptical'
p5652
I1
sS'spanking'
p5653
I1
sS'planning'
p5654
I4
sS'democrats'
p5655
I20
sS'fear'
p5656
I7
sS'darkest'
p5657
I1
sS'pleased'
p5658
I2
sS'candidates'
p5659
I2
sS'local'
p5660
I1
sS'prosecute'
p5661
I4
sS'sued'
p5662
I4
sS'cuba'
p5663
I3
sS'ones'
p5664
I1
sS'sues'
p5665
I2
sS'words'
p5666
I5
sS'qu'
p5667
I1
sS'married'
p5668
I1
sS'affluent'
p5669
I1
sS'view'
p5670
I3
sS'europe'
p5671
I2
sS'grieve'
p5672
I1
sS'cairns'
p5673
I1
sS'unfairly'
p5674
I2
sS'confrontational'
p5675
I1
sS'closer'
p5676
I1
sS'closes'
p5677
I2
sS'televised'
p5678
I1
sS'mexicano'
p5679
I1
sS'genius'
p5680
I1
sS'mexicans'
p5681
I3
sS'closed'
p5682
I2
sS'intimidated'
p5683
I1
sS'stories'
p5684
I2
sS'defacing'
p5685
I1
sS'ability'
p5686
I1
sS'agencies'
p5687
I2
sS'job'
p5688
I8
sS'takeover'
p5689
I2
sS'joe'
p5690
I9
sS'jon'
p5691
I1
sS'april'
p5692
I2
sS'grounds'
p5693
I1
sS'withdraws'
p5694
I1
sS'wall'
p5695
I61
sS'batavia'
p5696
I1
sS'yuuuge'
p5697
I1
sS'walk'
p5698
I16
sS'confronts'
p5699
I1
sS'hunters'
p5700
I1
sS'bbc'
p5701
I1
sS'responds'
p5702
I4
sS'literal'
p5703
I1
sS'apec'
p5704
I2
sS'ghettos'
p5705
I1
sS'mike'
p5706
I9
sS'mika'
p5707
I2
sS'painted'
p5708
I2
sS'tap'
p5709
I1
sS'scrutiny'
p5710
I1
sS'ipswich'
p5711
I1
sS'unmoved'
p5712
I1
sS'painter'
p5713
I2
sS'abandoned'
p5714
I1
sS'irate'
p5715
I1
sS'choices'
p5716
I1
sS'will'
p5717
I161
sS'readies'
p5718
I1
sS'ringing'
p5719
I1
sS'draining'
p5720
I2
sS'dual'
p5721
I1
sS'snuck'
p5722
I1
sS'thug'
p5723
I6
sS'perhaps'
p5724
I1
sS'cross'
p5725
I2
sS'eric'
p5726
I7
sS'member'
p5727
I1
sS'unity'
p5728
I4
sS'misogynist'
p5729
I2
sS'gets'
p5730
I18
sS'slave'
p5731
I2
sS'automation'
p5732
I1
sS'beast'
p5733
I1
sS'student'
p5734
I2
sS'lobby'
p5735
I1
sS'warming'
p5736
I1
sS'gutter'
p5737
I1
sS'whole'
p5738
I2
sS'banging'
p5739
I1
sS'fighting'
p5740
I6
sS'contenders'
p5741
I1
sS'rocket'
p5742
I1
sS'heavily'
p5743
I1
sS'recap'
p5744
I1
sS'recollection'
p5745
I1
sS'fishing'
p5746
I1
sS'rocked'
p5747
I1
sS'disturbance'
p5748
I1
sS'supply'
p5749
I1
sS'sky'
p5750
I2
sS'morbidly'
p5751
I1
sS'discuss'
p5752
I3
sS'other'
p5753
I8
sS'unprecedented'
p5754
I1
sS'sich'
p5755
I1
sS'protesters'
p5756
I14
sS'libertynews'
p5757
I1
sS'know'
p5758
I17
sS'press'
p5759
I30
sS'racists'
p5760
I1
sS'loser'
p5761
I1
sS'loses'
p5762
I14
sS'hosts'
p5763
I2
sS'veritas'
p5764
I1
sS'because'
p5765
I18
sS'scared'
p5766
I2
sS'searching'
p5767
I1
sS'growth'
p5768
I2
sS'export'
p5769
I1
sS'lead'
p5770
I22
sS'leak'
p5771
I2
sS'lean'
p5772
I1
sS'bosses'
p5773
I1
sS'murdoch'
p5774
I1
sS'debuts'
p5775
I1
sS'ripped'
p5776
I1
sS'mitt'
p5777
I3
sS'slut'
p5778
I1
sS'stay'
p5779
I6
sS'perspectives'
p5780
I1
sS'extension'
p5781
I1
sS'getting'
p5782
I6
sS'universe'
p5783
I2
sS'spilled'
p5784
I1
sS'urged'
p5785
I2
sS'surge'
p5786
I1
sS'saker'
p5787
I1
sS'urges'
p5788
I9
sS'emperor'
p5789
I1
sS'own'
p5790
I12
sS'owe'
p5791
I1
sS'fundraiser'
p5792
I1
sS'weather'
p5793
I1
sS'promise'
p5794
I6
sS'registration'
p5795
I1
sS'brilliantly'
p5796
I2
sS'nuke'
p5797
I1
sS'van'
p5798
I1
sS'transfer'
p5799
I2
sS'indictments'
p5800
I1
sS'spiral'
p5801
I1
sS'kidding'
p5802
I1
sS'triggered'
p5803
I2
sS'funds'
p5804
I2
sS'made'
p5805
I9
sS'tactics'
p5806
I2
sS'whether'
p5807
I5
sS'protesting'
p5808
I1
sS'record'
p5809
I11
sS'ruling'
p5810
I3
sS'cake'
p5811
I3
sS'horrific'
p5812
I1
sS'rightwing'
p5813
I1
sS'incredible'
p5814
I1
sS'boos'
p5815
I2
sS'percent'
p5816
I2
sS'roars'
p5817
I1
sS'book'
p5818
I7
sS'boom'
p5819
I2
sS'sick'
p5820
I7
sS'coffees'
p5821
I1
sS'hysteria'
p5822
I1
sS'lance'
p5823
I1
sS'illegally'
p5824
I2
sS'shredded'
p5825
I1
sS'june'
p5826
I1
sS'socialising'
p5827
I1
sS'ceos'
p5828
I1
sS'boycottcomedian'
p5829
I1
sS'pierson'
p5830
I1
sS'richardson'
p5831
I1
sS'expands'
p5832
I1
s.